ARM GAS  C:\Users\Feiyang\AppData\Local\Temp\ccVpylT7.s 			page 1


   1              		.cpu cortex-m0
   2              		.fpu softvfp
   3              		.eabi_attribute 20, 1
   4              		.eabi_attribute 21, 1
   5              		.eabi_attribute 23, 3
   6              		.eabi_attribute 24, 1
   7              		.eabi_attribute 25, 1
   8              		.eabi_attribute 26, 1
   9              		.eabi_attribute 30, 1
  10              		.eabi_attribute 34, 0
  11              		.eabi_attribute 18, 4
  12              		.code	16
  13              		.file	"main.c"
  14              		.text
  15              	.Ltext0:
  16              		.cfi_sections	.debug_frame
  17              		.global	__aeabi_uidiv
  18              		.section	.text.timer_interrupt,"ax",%progbits
  19              		.align	2
  20              		.global	timer_interrupt
  21              		.code	16
  22              		.thumb_func
  23              		.type	timer_interrupt, %function
  24              	timer_interrupt:
  25              	.LFB44:
  26              		.file 1 "main.c"
   1:main.c        **** #include "project.h"
   2:main.c        **** 
   3:main.c        **** #define LED_ON 0
   4:main.c        **** #define LED_OFF 1
   5:main.c        **** #define UART_RX_HEADER 0xA0
   6:main.c        **** #define UART_RX_FOOTER 0xFF
   7:main.c        **** #define NUM_LOCATIONS 64
   8:main.c        **** 
   9:main.c        **** enum UART_RX_TYPE{
  10:main.c        ****     SET_SSVEP  = 0x01,
  11:main.c        ****     SET_P300   = 0x02,
  12:main.c        ****     P300_START = 0x04,
  13:main.c        **** };
  14:main.c        **** 
  15:main.c        **** enum OPERATING_MODE{
  16:main.c        ****     STOP  = 0,
  17:main.c        ****     SSVEP = 1,
  18:main.c        ****     P300  = 2,
  19:main.c        **** };
  20:main.c        **** 
  21:main.c        **** // milliseconds since it begins
  22:main.c        **** uint32 mills = 0;
  23:main.c        **** 
  24:main.c        **** uint8 operating_mode = 1;
  25:main.c        **** 
  26:main.c        **** uint32 SSVEP_next_toggle[NUM_LOCATIONS];
  27:main.c        **** uint8  SSVEP_intervals[NUM_LOCATIONS];
  28:main.c        **** uint8  SSVEP_states[NUM_LOCATIONS];
  29:main.c        **** uint8  SSVEP_intervals_next[NUM_LOCATIONS];
  30:main.c        **** 
  31:main.c        **** uint8  UART_rx_buffer[64];
ARM GAS  C:\Users\Feiyang\AppData\Local\Temp\ccVpylT7.s 			page 2


  32:main.c        **** uint8  UART_rx_buffer_ind = 0;
  33:main.c        **** uint8  UART_rx_buffer_process_ind = 0;
  34:main.c        **** uint8  UART_rx_buffer_process_ind_reset_flag = 0;
  35:main.c        **** uint8  UART_rx_last_byte = 0;
  36:main.c        **** uint8  UART_rx_type = 0;
  37:main.c        **** 
  38:main.c        **** uint16 sweep_time[100];
  39:main.c        **** uint8 sweep_i = 0;
  40:main.c        **** uint32 tic, toc;
  41:main.c        **** uint16 mills_time[100];
  42:main.c        **** uint8 mills_time_i = 0;
  43:main.c        **** 
  44:main.c        **** 
  45:main.c        **** //CRC-8 - based on the CRC8 formulas by Dallas/Maxim
  46:main.c        **** //code released under the therms of the GNU GPL 3.0 license
  47:main.c        **** uint8 CRC8(uint8 *data, uint8 len) {
  48:main.c        ****   uint8 crc = 0x00;
  49:main.c        ****   uint8 offset;
  50:main.c        ****   for (offset=0; offset<len; offset++){
  51:main.c        ****   // while (len--) {
  52:main.c        ****     uint8 extract = *(data + offset);
  53:main.c        ****     uint8 tempI;
  54:main.c        ****     for (tempI = 8; tempI; tempI--) {
  55:main.c        ****       uint8 sum = (crc ^ extract) & 0x01;
  56:main.c        ****       crc >>= 1;
  57:main.c        ****       if (sum) {
  58:main.c        ****         crc ^= 0x8C;
  59:main.c        ****       }
  60:main.c        ****       extract >>= 1;
  61:main.c        ****     }
  62:main.c        ****   }
  63:main.c        ****   return crc;
  64:main.c        **** }
  65:main.c        **** 
  66:main.c        **** void write_pin(uint8 pin_num, uint8 state){
  67:main.c        ****          if ( pin_num ==  0 ){  Pin_1_Write(state); }
  68:main.c        ****     else if ( pin_num ==  1 ){  Pin_2_Write(state); }
  69:main.c        ****     else if ( pin_num ==  2 ){  Pin_3_Write(state); }
  70:main.c        ****     else if ( pin_num ==  3 ){  Pin_4_Write(state); }
  71:main.c        ****     else if ( pin_num ==  4 ){  Pin_5_Write(state); }
  72:main.c        ****     else if ( pin_num ==  5 ){  Pin_6_Write(state); }
  73:main.c        ****     else if ( pin_num ==  6 ){  Pin_7_Write(state); }
  74:main.c        ****     else if ( pin_num ==  7 ){  Pin_8_Write(state); }
  75:main.c        ****     else if ( pin_num ==  8 ){  Pin_9_Write(state); }
  76:main.c        ****     else if ( pin_num ==  9 ){ Pin_10_Write(state); }
  77:main.c        ****     else if ( pin_num == 10 ){ Pin_11_Write(state); }
  78:main.c        ****     else if ( pin_num == 11 ){ Pin_12_Write(state); }
  79:main.c        ****     else if ( pin_num == 12 ){ Pin_13_Write(state); }
  80:main.c        ****     else if ( pin_num == 13 ){ Pin_14_Write(state); }
  81:main.c        ****     else if ( pin_num == 14 ){ Pin_15_Write(state); }
  82:main.c        ****     else if ( pin_num == 15 ){ Pin_16_Write(state); }   
  83:main.c        **** }
  84:main.c        **** 
  85:main.c        **** void uart_buffer_add_char(uint8 ch){
  86:main.c        ****     UART_rx_buffer[ UART_rx_buffer_ind ] = ch;
  87:main.c        ****     UART_rx_buffer_ind++;
  88:main.c        ****     
ARM GAS  C:\Users\Feiyang\AppData\Local\Temp\ccVpylT7.s 			page 3


  89:main.c        ****     // check overflow
  90:main.c        ****     if (UART_rx_buffer_ind >= 64){
  91:main.c        ****         UART_1_UartPutString("rx buffer full\n\r");
  92:main.c        ****         UART_rx_buffer_ind = 63;
  93:main.c        ****     }
  94:main.c        **** }
  95:main.c        **** 
  96:main.c        **** void uart_buffer_clear(){
  97:main.c        ****     uint8 i;
  98:main.c        ****     for (i=0; i<64; i++){
  99:main.c        ****         UART_rx_buffer[i] = 0;
 100:main.c        ****     }
 101:main.c        ****     UART_rx_buffer_ind = 0;
 102:main.c        ****     UART_rx_buffer_process_ind_reset_flag = 1;
 103:main.c        **** }
 104:main.c        **** 
 105:main.c        **** // return the unique location identifier
 106:main.c        **** // 0 <= output <= 63
 107:main.c        **** // 0 <= row <= 7
 108:main.c        **** // 0 <= col <= 7
 109:main.c        **** uint8 find_location_number(uint8 row, uint8 col){
 110:main.c        ****     return (row*8 + col);
 111:main.c        **** }
 112:main.c        **** 
 113:main.c        **** void uart_rx_buffer_process_set_ssvep(uint8 buffer_ind_max){
 114:main.c        ****     if ( (8 < buffer_ind_max) && (buffer_ind_max < 37) ){
 115:main.c        ****         uint8 i;
 116:main.c        ****         for (i = 9; i<37; i+=9){ // sweep ind for freq<x> field
 117:main.c        ****             if ( i == buffer_ind_max ){
 118:main.c        ****                 uint8 interval, row, col; 
 119:main.c        ****                 // toggle interval for this mask
 120:main.c        ****                 interval = UART_rx_buffer[buffer_ind_max];
 121:main.c        ****                 for (row = 0; row < 8; row++){ // sweep each byte (row)
 122:main.c        ****                     uint8 this_byte = UART_rx_buffer[(buffer_ind_max-8+row)];
 123:main.c        ****                     for (col = 0; col < 8; col++){ // sweep each bit (column)
 124:main.c        ****                         uint8 mask = (128 >> col); // mask for selecting a bit
 125:main.c        ****                         if ( (this_byte & mask) > 0 ){ // if this bit is 1
 126:main.c        ****                             uint8 id = find_location_number(row, col);
 127:main.c        ****                             SSVEP_intervals_next[id] = interval;
 128:main.c        ****                         }
 129:main.c        ****                     }
 130:main.c        ****                 }
 131:main.c        ****                 break;
 132:main.c        ****             }
 133:main.c        ****         }
 134:main.c        ****     }
 135:main.c        ****     else if (buffer_ind_max == 37){
 136:main.c        ****         if (UART_rx_buffer[buffer_ind_max] == UART_RX_FOOTER){
 137:main.c        ****             uint8 crc8sum = CRC8( &UART_rx_buffer, buffer_ind_max );
 138:main.c        ****             UART_1_UartPutChar(crc8sum);
 139:main.c        ****             // apply this new pattern
 140:main.c        ****             operating_mode = STOP;
 141:main.c        ****             uint8 i;
 142:main.c        ****             for (i=0; i<NUM_LOCATIONS; i++){
 143:main.c        ****                 SSVEP_intervals[i] = SSVEP_intervals_next[i];
 144:main.c        ****                 SSVEP_states[i] = LED_OFF;
 145:main.c        ****                 SSVEP_next_toggle[i] = 0;
ARM GAS  C:\Users\Feiyang\AppData\Local\Temp\ccVpylT7.s 			page 4


 146:main.c        ****                 write_pin(i, LED_OFF);
 147:main.c        ****             }
 148:main.c        ****             operating_mode = SSVEP;
 149:main.c        ****         }
 150:main.c        ****     }
 151:main.c        ****             
 152:main.c        **** }
 153:main.c        **** 
 154:main.c        **** void ssvep_buffer_reset(){
 155:main.c        ****     uint8 i; 
 156:main.c        ****     for (i=0; i<NUM_LOCATIONS; i++){
 157:main.c        ****         SSVEP_intervals_next[i] = 0;
 158:main.c        ****     }
 159:main.c        ****     // UART_rx_buffer_process_ind = 0;
 160:main.c        **** }
 161:main.c        **** 
 162:main.c        **** void uart_rx_buffer_process(uint8 buffer_ind_max){
 163:main.c        ****     if (buffer_ind_max == 0){
 164:main.c        ****         UART_rx_type = UART_rx_buffer[ buffer_ind_max ];
 165:main.c        ****         if (UART_rx_type == SET_SSVEP){
 166:main.c        ****             ssvep_buffer_reset();
 167:main.c        ****         }
 168:main.c        ****     }
 169:main.c        ****     else {
 170:main.c        ****         if (UART_rx_type == SET_SSVEP){
 171:main.c        ****             uart_rx_buffer_process_set_ssvep(buffer_ind_max);
 172:main.c        ****         }
 173:main.c        ****     }
 174:main.c        **** }
 175:main.c        **** 
 176:main.c        **** void ssvep_flip(uint8 pin_num){
 177:main.c        ****     if (SSVEP_states[pin_num] == LED_ON){
 178:main.c        ****         SSVEP_states[pin_num] = LED_OFF;
 179:main.c        ****     }
 180:main.c        ****     else{
 181:main.c        ****         SSVEP_states[pin_num] = LED_ON;
 182:main.c        ****     }
 183:main.c        ****     write_pin(pin_num, SSVEP_states[pin_num]);
 184:main.c        **** }
 185:main.c        **** 
 186:main.c        **** void init_data(){
 187:main.c        ****     uint8 i;
 188:main.c        ****     for (i=0; i<NUM_LOCATIONS; i++){
 189:main.c        ****         SSVEP_intervals[i] = 0;
 190:main.c        ****         SSVEP_states[i] = LED_OFF;
 191:main.c        ****         SSVEP_next_toggle[i] = 0;
 192:main.c        ****         write_pin(i, LED_OFF);
 193:main.c        ****         SSVEP_intervals_next[i] = 0;
 194:main.c        ****     }
 195:main.c        **** }
 196:main.c        **** 
 197:main.c        **** CY_ISR(timer_interrupt)
 198:main.c        **** {
  27              		.loc 1 198 0
  28              		.cfi_startproc
  29 0000 38B5     		push	{r3, r4, r5, lr}
  30              		.cfi_def_cfa_offset 16
ARM GAS  C:\Users\Feiyang\AppData\Local\Temp\ccVpylT7.s 			page 5


  31              		.cfi_offset 3, -16
  32              		.cfi_offset 4, -12
  33              		.cfi_offset 5, -8
  34              		.cfi_offset 14, -4
 199:main.c        ****     mills++;
  35              		.loc 1 199 0
  36 0002 144A     		ldr	r2, .L3
  37 0004 1368     		ldr	r3, [r2]
  38 0006 591C     		add	r1, r3, #1
  39 0008 1160     		str	r1, [r2]
 200:main.c        ****     
 201:main.c        ****     if (1000 < mills && mills < 2000){
  40              		.loc 1 201 0
  41 000a 134A     		ldr	r2, .L3+4
  42 000c 9446     		mov	ip, r2
  43 000e 6344     		add	r3, r3, ip
  44 0010 124A     		ldr	r2, .L3+8
  45 0012 9342     		cmp	r3, r2
  46 0014 1AD8     		bhi	.L2
 202:main.c        ****         if (mills_time_i < 100){
  47              		.loc 1 202 0
  48 0016 0F4B     		ldr	r3, .L3
  49 0018 1B79     		ldrb	r3, [r3, #4]
  50 001a 632B     		cmp	r3, #99
  51 001c 16D8     		bhi	.L2
 203:main.c        ****             Timer_2_Stop();
  52              		.loc 1 203 0
  53 001e FFF7FEFF 		bl	Timer_2_Stop
  54              	.LVL0:
 204:main.c        ****             mills_time[mills_time_i] = Timer_2_ReadCounter() * 10 / 12;
  55              		.loc 1 204 0
  56 0022 0C4C     		ldr	r4, .L3
  57 0024 2579     		ldrb	r5, [r4, #4]
  58 0026 FFF7FEFF 		bl	Timer_2_ReadCounter
  59              	.LVL1:
  60 002a 8300     		lsl	r3, r0, #2
  61 002c 1818     		add	r0, r3, r0
  62 002e 4000     		lsl	r0, r0, #1
  63 0030 0C21     		mov	r1, #12
  64 0032 FFF7FEFF 		bl	__aeabi_uidiv
  65              	.LVL2:
  66 0036 6D00     		lsl	r5, r5, #1
  67 0038 094B     		ldr	r3, .L3+12
  68 003a E852     		strh	r0, [r5, r3]
 205:main.c        ****             Timer_2_WriteCounter(0);
  69              		.loc 1 205 0
  70 003c 0020     		mov	r0, #0
  71 003e FFF7FEFF 		bl	Timer_2_WriteCounter
  72              	.LVL3:
 206:main.c        ****             Timer_2_Enable();
  73              		.loc 1 206 0
  74 0042 FFF7FEFF 		bl	Timer_2_Enable
  75              	.LVL4:
 207:main.c        ****             mills_time_i++;
  76              		.loc 1 207 0
  77 0046 2379     		ldrb	r3, [r4, #4]
  78 0048 0133     		add	r3, r3, #1
ARM GAS  C:\Users\Feiyang\AppData\Local\Temp\ccVpylT7.s 			page 6


  79 004a 2371     		strb	r3, [r4, #4]
  80              	.L2:
 208:main.c        ****         }
 209:main.c        ****     }
 210:main.c        ****     
 211:main.c        ****     Timer_ms_ClearInterrupt(Timer_ms_INTR_MASK_TC);
  81              		.loc 1 211 0
  82 004c 0120     		mov	r0, #1
  83 004e FFF7FEFF 		bl	Timer_ms_ClearInterrupt
  84              	.LVL5:
 212:main.c        **** }
  85              		.loc 1 212 0
  86              		@ sp needed
  87 0052 38BD     		pop	{r3, r4, r5, pc}
  88              	.L4:
  89              		.align	2
  90              	.L3:
  91 0054 00000000 		.word	.LANCHOR0
  92 0058 18FCFFFF 		.word	-1000
  93 005c E6030000 		.word	998
  94 0060 00000000 		.word	mills_time
  95              		.cfi_endproc
  96              	.LFE44:
  97              		.size	timer_interrupt, .-timer_interrupt
  98              		.section	.text.CRC8,"ax",%progbits
  99              		.align	2
 100              		.global	CRC8
 101              		.code	16
 102              		.thumb_func
 103              		.type	CRC8, %function
 104              	CRC8:
 105              	.LFB34:
  47:main.c        ****   uint8 crc = 0x00;
 106              		.loc 1 47 0
 107              		.cfi_startproc
 108              	.LVL6:
 109 0000 F0B5     		push	{r4, r5, r6, r7, lr}
 110              		.cfi_def_cfa_offset 20
 111              		.cfi_offset 4, -20
 112              		.cfi_offset 5, -16
 113              		.cfi_offset 6, -12
 114              		.cfi_offset 7, -8
 115              		.cfi_offset 14, -4
 116 0002 071C     		mov	r7, r0
 117              	.LVL7:
  50:main.c        ****   // while (len--) {
 118              		.loc 1 50 0
 119 0004 0026     		mov	r6, #0
  48:main.c        ****   uint8 offset;
 120              		.loc 1 48 0
 121 0006 0022     		mov	r2, #0
  50:main.c        ****   // while (len--) {
 122              		.loc 1 50 0
 123 0008 12E0     		b	.L6
 124              	.LVL8:
 125              	.L10:
 126              	.LBB2:
ARM GAS  C:\Users\Feiyang\AppData\Local\Temp\ccVpylT7.s 			page 7


  52:main.c        ****     uint8 tempI;
 127              		.loc 1 52 0
 128 000a BC5D     		ldrb	r4, [r7, r6]
 129              	.LVL9:
  54:main.c        ****       uint8 sum = (crc ^ extract) & 0x01;
 130              		.loc 1 54 0
 131 000c 0823     		mov	r3, #8
 132 000e 0BE0     		b	.L7
 133              	.LVL10:
 134              	.L9:
 135              	.LBB3:
  55:main.c        ****       crc >>= 1;
 136              		.loc 1 55 0
 137 0010 151C     		mov	r5, r2
 138 0012 6540     		eor	r5, r4
 139              	.LVL11:
  56:main.c        ****       if (sum) {
 140              		.loc 1 56 0
 141 0014 5208     		lsr	r2, r2, #1
 142              	.LVL12:
  57:main.c        ****         crc ^= 0x8C;
 143              		.loc 1 57 0
 144 0016 E807     		lsl	r0, r5, #31
 145 0018 03D5     		bpl	.L8
  58:main.c        ****       }
 146              		.loc 1 58 0
 147 001a 7420     		mov	r0, #116
 148 001c 4042     		neg	r0, r0
 149 001e 4240     		eor	r2, r0
 150              	.LVL13:
 151 0020 D2B2     		uxtb	r2, r2
 152              	.LVL14:
 153              	.L8:
  60:main.c        ****     }
 154              		.loc 1 60 0 discriminator 2
 155 0022 6408     		lsr	r4, r4, #1
 156              	.LVL15:
 157              	.LBE3:
  54:main.c        ****       uint8 sum = (crc ^ extract) & 0x01;
 158              		.loc 1 54 0 discriminator 2
 159 0024 013B     		sub	r3, r3, #1
 160              	.LVL16:
 161 0026 DBB2     		uxtb	r3, r3
 162              	.LVL17:
 163              	.L7:
  54:main.c        ****       uint8 sum = (crc ^ extract) & 0x01;
 164              		.loc 1 54 0 is_stmt 0 discriminator 1
 165 0028 002B     		cmp	r3, #0
 166 002a F1D1     		bne	.L9
 167              	.LBE2:
  50:main.c        ****   // while (len--) {
 168              		.loc 1 50 0 is_stmt 1 discriminator 2
 169 002c 0136     		add	r6, r6, #1
 170              	.LVL18:
 171 002e F6B2     		uxtb	r6, r6
 172              	.LVL19:
 173              	.L6:
ARM GAS  C:\Users\Feiyang\AppData\Local\Temp\ccVpylT7.s 			page 8


  50:main.c        ****   // while (len--) {
 174              		.loc 1 50 0 is_stmt 0 discriminator 1
 175 0030 8E42     		cmp	r6, r1
 176 0032 EAD3     		bcc	.L10
  64:main.c        **** 
 177              		.loc 1 64 0 is_stmt 1
 178 0034 101C     		mov	r0, r2
 179              		@ sp needed
 180              	.LVL20:
 181              	.LVL21:
 182 0036 F0BD     		pop	{r4, r5, r6, r7, pc}
 183              		.cfi_endproc
 184              	.LFE34:
 185              		.size	CRC8, .-CRC8
 186              		.section	.text.write_pin,"ax",%progbits
 187              		.align	2
 188              		.global	write_pin
 189              		.code	16
 190              		.thumb_func
 191              		.type	write_pin, %function
 192              	write_pin:
 193              	.LFB35:
  66:main.c        ****          if ( pin_num ==  0 ){  Pin_1_Write(state); }
 194              		.loc 1 66 0
 195              		.cfi_startproc
 196              	.LVL22:
 197 0000 08B5     		push	{r3, lr}
 198              		.cfi_def_cfa_offset 8
 199              		.cfi_offset 3, -8
 200              		.cfi_offset 14, -4
  67:main.c        ****     else if ( pin_num ==  1 ){  Pin_2_Write(state); }
 201              		.loc 1 67 0
 202 0002 0028     		cmp	r0, #0
 203 0004 03D1     		bne	.L12
  67:main.c        ****     else if ( pin_num ==  1 ){  Pin_2_Write(state); }
 204              		.loc 1 67 0 is_stmt 0 discriminator 1
 205 0006 081C     		mov	r0, r1
 206              	.LVL23:
 207 0008 FFF7FEFF 		bl	Pin_1_Write
 208              	.LVL24:
 209 000c 58E0     		b	.L11
 210              	.LVL25:
 211              	.L12:
  68:main.c        ****     else if ( pin_num ==  2 ){  Pin_3_Write(state); }
 212              		.loc 1 68 0 is_stmt 1
 213 000e 0128     		cmp	r0, #1
 214 0010 03D1     		bne	.L14
  68:main.c        ****     else if ( pin_num ==  2 ){  Pin_3_Write(state); }
 215              		.loc 1 68 0 is_stmt 0 discriminator 1
 216 0012 081C     		mov	r0, r1
 217              	.LVL26:
 218 0014 FFF7FEFF 		bl	Pin_2_Write
 219              	.LVL27:
 220 0018 52E0     		b	.L11
 221              	.LVL28:
 222              	.L14:
  69:main.c        ****     else if ( pin_num ==  3 ){  Pin_4_Write(state); }
ARM GAS  C:\Users\Feiyang\AppData\Local\Temp\ccVpylT7.s 			page 9


 223              		.loc 1 69 0 is_stmt 1
 224 001a 0228     		cmp	r0, #2
 225 001c 03D1     		bne	.L15
  69:main.c        ****     else if ( pin_num ==  3 ){  Pin_4_Write(state); }
 226              		.loc 1 69 0 is_stmt 0 discriminator 1
 227 001e 081C     		mov	r0, r1
 228              	.LVL29:
 229 0020 FFF7FEFF 		bl	Pin_3_Write
 230              	.LVL30:
 231 0024 4CE0     		b	.L11
 232              	.LVL31:
 233              	.L15:
  70:main.c        ****     else if ( pin_num ==  4 ){  Pin_5_Write(state); }
 234              		.loc 1 70 0 is_stmt 1
 235 0026 0328     		cmp	r0, #3
 236 0028 03D1     		bne	.L16
  70:main.c        ****     else if ( pin_num ==  4 ){  Pin_5_Write(state); }
 237              		.loc 1 70 0 is_stmt 0 discriminator 1
 238 002a 081C     		mov	r0, r1
 239              	.LVL32:
 240 002c FFF7FEFF 		bl	Pin_4_Write
 241              	.LVL33:
 242 0030 46E0     		b	.L11
 243              	.LVL34:
 244              	.L16:
  71:main.c        ****     else if ( pin_num ==  5 ){  Pin_6_Write(state); }
 245              		.loc 1 71 0 is_stmt 1
 246 0032 0428     		cmp	r0, #4
 247 0034 03D1     		bne	.L17
  71:main.c        ****     else if ( pin_num ==  5 ){  Pin_6_Write(state); }
 248              		.loc 1 71 0 is_stmt 0 discriminator 1
 249 0036 081C     		mov	r0, r1
 250              	.LVL35:
 251 0038 FFF7FEFF 		bl	Pin_5_Write
 252              	.LVL36:
 253 003c 40E0     		b	.L11
 254              	.LVL37:
 255              	.L17:
  72:main.c        ****     else if ( pin_num ==  6 ){  Pin_7_Write(state); }
 256              		.loc 1 72 0 is_stmt 1
 257 003e 0528     		cmp	r0, #5
 258 0040 03D1     		bne	.L18
  72:main.c        ****     else if ( pin_num ==  6 ){  Pin_7_Write(state); }
 259              		.loc 1 72 0 is_stmt 0 discriminator 1
 260 0042 081C     		mov	r0, r1
 261              	.LVL38:
 262 0044 FFF7FEFF 		bl	Pin_6_Write
 263              	.LVL39:
 264 0048 3AE0     		b	.L11
 265              	.LVL40:
 266              	.L18:
  73:main.c        ****     else if ( pin_num ==  7 ){  Pin_8_Write(state); }
 267              		.loc 1 73 0 is_stmt 1
 268 004a 0628     		cmp	r0, #6
 269 004c 03D1     		bne	.L19
  73:main.c        ****     else if ( pin_num ==  7 ){  Pin_8_Write(state); }
 270              		.loc 1 73 0 is_stmt 0 discriminator 1
ARM GAS  C:\Users\Feiyang\AppData\Local\Temp\ccVpylT7.s 			page 10


 271 004e 081C     		mov	r0, r1
 272              	.LVL41:
 273 0050 FFF7FEFF 		bl	Pin_7_Write
 274              	.LVL42:
 275 0054 34E0     		b	.L11
 276              	.LVL43:
 277              	.L19:
  74:main.c        ****     else if ( pin_num ==  8 ){  Pin_9_Write(state); }
 278              		.loc 1 74 0 is_stmt 1
 279 0056 0728     		cmp	r0, #7
 280 0058 03D1     		bne	.L20
  74:main.c        ****     else if ( pin_num ==  8 ){  Pin_9_Write(state); }
 281              		.loc 1 74 0 is_stmt 0 discriminator 1
 282 005a 081C     		mov	r0, r1
 283              	.LVL44:
 284 005c FFF7FEFF 		bl	Pin_8_Write
 285              	.LVL45:
 286 0060 2EE0     		b	.L11
 287              	.LVL46:
 288              	.L20:
  75:main.c        ****     else if ( pin_num ==  9 ){ Pin_10_Write(state); }
 289              		.loc 1 75 0 is_stmt 1
 290 0062 0828     		cmp	r0, #8
 291 0064 03D1     		bne	.L21
  75:main.c        ****     else if ( pin_num ==  9 ){ Pin_10_Write(state); }
 292              		.loc 1 75 0 is_stmt 0 discriminator 1
 293 0066 081C     		mov	r0, r1
 294              	.LVL47:
 295 0068 FFF7FEFF 		bl	Pin_9_Write
 296              	.LVL48:
 297 006c 28E0     		b	.L11
 298              	.LVL49:
 299              	.L21:
  76:main.c        ****     else if ( pin_num == 10 ){ Pin_11_Write(state); }
 300              		.loc 1 76 0 is_stmt 1
 301 006e 0928     		cmp	r0, #9
 302 0070 03D1     		bne	.L22
  76:main.c        ****     else if ( pin_num == 10 ){ Pin_11_Write(state); }
 303              		.loc 1 76 0 is_stmt 0 discriminator 1
 304 0072 081C     		mov	r0, r1
 305              	.LVL50:
 306 0074 FFF7FEFF 		bl	Pin_10_Write
 307              	.LVL51:
 308 0078 22E0     		b	.L11
 309              	.LVL52:
 310              	.L22:
  77:main.c        ****     else if ( pin_num == 11 ){ Pin_12_Write(state); }
 311              		.loc 1 77 0 is_stmt 1
 312 007a 0A28     		cmp	r0, #10
 313 007c 03D1     		bne	.L23
  77:main.c        ****     else if ( pin_num == 11 ){ Pin_12_Write(state); }
 314              		.loc 1 77 0 is_stmt 0 discriminator 1
 315 007e 081C     		mov	r0, r1
 316              	.LVL53:
 317 0080 FFF7FEFF 		bl	Pin_11_Write
 318              	.LVL54:
 319 0084 1CE0     		b	.L11
ARM GAS  C:\Users\Feiyang\AppData\Local\Temp\ccVpylT7.s 			page 11


 320              	.LVL55:
 321              	.L23:
  78:main.c        ****     else if ( pin_num == 12 ){ Pin_13_Write(state); }
 322              		.loc 1 78 0 is_stmt 1
 323 0086 0B28     		cmp	r0, #11
 324 0088 03D1     		bne	.L24
  78:main.c        ****     else if ( pin_num == 12 ){ Pin_13_Write(state); }
 325              		.loc 1 78 0 is_stmt 0 discriminator 1
 326 008a 081C     		mov	r0, r1
 327              	.LVL56:
 328 008c FFF7FEFF 		bl	Pin_12_Write
 329              	.LVL57:
 330 0090 16E0     		b	.L11
 331              	.LVL58:
 332              	.L24:
  79:main.c        ****     else if ( pin_num == 13 ){ Pin_14_Write(state); }
 333              		.loc 1 79 0 is_stmt 1
 334 0092 0C28     		cmp	r0, #12
 335 0094 03D1     		bne	.L25
  79:main.c        ****     else if ( pin_num == 13 ){ Pin_14_Write(state); }
 336              		.loc 1 79 0 is_stmt 0 discriminator 1
 337 0096 081C     		mov	r0, r1
 338              	.LVL59:
 339 0098 FFF7FEFF 		bl	Pin_13_Write
 340              	.LVL60:
 341 009c 10E0     		b	.L11
 342              	.LVL61:
 343              	.L25:
  80:main.c        ****     else if ( pin_num == 14 ){ Pin_15_Write(state); }
 344              		.loc 1 80 0 is_stmt 1
 345 009e 0D28     		cmp	r0, #13
 346 00a0 03D1     		bne	.L26
  80:main.c        ****     else if ( pin_num == 14 ){ Pin_15_Write(state); }
 347              		.loc 1 80 0 is_stmt 0 discriminator 1
 348 00a2 081C     		mov	r0, r1
 349              	.LVL62:
 350 00a4 FFF7FEFF 		bl	Pin_14_Write
 351              	.LVL63:
 352 00a8 0AE0     		b	.L11
 353              	.LVL64:
 354              	.L26:
  81:main.c        ****     else if ( pin_num == 15 ){ Pin_16_Write(state); }   
 355              		.loc 1 81 0 is_stmt 1
 356 00aa 0E28     		cmp	r0, #14
 357 00ac 03D1     		bne	.L27
  81:main.c        ****     else if ( pin_num == 15 ){ Pin_16_Write(state); }   
 358              		.loc 1 81 0 is_stmt 0 discriminator 1
 359 00ae 081C     		mov	r0, r1
 360              	.LVL65:
 361 00b0 FFF7FEFF 		bl	Pin_15_Write
 362              	.LVL66:
 363 00b4 04E0     		b	.L11
 364              	.LVL67:
 365              	.L27:
  82:main.c        **** }
 366              		.loc 1 82 0 is_stmt 1
 367 00b6 0F28     		cmp	r0, #15
ARM GAS  C:\Users\Feiyang\AppData\Local\Temp\ccVpylT7.s 			page 12


 368 00b8 02D1     		bne	.L11
  82:main.c        **** }
 369              		.loc 1 82 0 is_stmt 0 discriminator 1
 370 00ba 081C     		mov	r0, r1
 371              	.LVL68:
 372 00bc FFF7FEFF 		bl	Pin_16_Write
 373              	.LVL69:
 374              	.L11:
  83:main.c        **** 
 375              		.loc 1 83 0 is_stmt 1
 376              		@ sp needed
 377 00c0 08BD     		pop	{r3, pc}
 378              		.cfi_endproc
 379              	.LFE35:
 380              		.size	write_pin, .-write_pin
 381 00c2 C046     		.section	.text.uart_buffer_add_char,"ax",%progbits
 382              		.align	2
 383              		.global	uart_buffer_add_char
 384              		.code	16
 385              		.thumb_func
 386              		.type	uart_buffer_add_char, %function
 387              	uart_buffer_add_char:
 388              	.LFB36:
  85:main.c        ****     UART_rx_buffer[ UART_rx_buffer_ind ] = ch;
 389              		.loc 1 85 0
 390              		.cfi_startproc
 391              	.LVL70:
 392 0000 08B5     		push	{r3, lr}
 393              		.cfi_def_cfa_offset 8
 394              		.cfi_offset 3, -8
 395              		.cfi_offset 14, -4
  86:main.c        ****     UART_rx_buffer_ind++;
 396              		.loc 1 86 0
 397 0002 084A     		ldr	r2, .L30
 398 0004 5379     		ldrb	r3, [r2, #5]
 399 0006 0849     		ldr	r1, .L30+4
 400 0008 C854     		strb	r0, [r1, r3]
  87:main.c        ****     
 401              		.loc 1 87 0
 402 000a 0133     		add	r3, r3, #1
 403 000c DBB2     		uxtb	r3, r3
 404 000e 5371     		strb	r3, [r2, #5]
  90:main.c        ****         UART_1_UartPutString("rx buffer full\n\r");
 405              		.loc 1 90 0
 406 0010 3F2B     		cmp	r3, #63
 407 0012 05D9     		bls	.L28
  91:main.c        ****         UART_rx_buffer_ind = 63;
 408              		.loc 1 91 0
 409 0014 0548     		ldr	r0, .L30+8
 410              	.LVL71:
 411 0016 FFF7FEFF 		bl	UART_1_UartPutString
 412              	.LVL72:
  92:main.c        ****     }
 413              		.loc 1 92 0
 414 001a 3F22     		mov	r2, #63
 415 001c 014B     		ldr	r3, .L30
 416 001e 5A71     		strb	r2, [r3, #5]
ARM GAS  C:\Users\Feiyang\AppData\Local\Temp\ccVpylT7.s 			page 13


 417              	.L28:
  94:main.c        **** 
 418              		.loc 1 94 0
 419              		@ sp needed
 420 0020 08BD     		pop	{r3, pc}
 421              	.L31:
 422 0022 C046     		.align	2
 423              	.L30:
 424 0024 00000000 		.word	.LANCHOR0
 425 0028 00000000 		.word	UART_rx_buffer
 426 002c 00000000 		.word	.LC4
 427              		.cfi_endproc
 428              	.LFE36:
 429              		.size	uart_buffer_add_char, .-uart_buffer_add_char
 430              		.section	.text.uart_buffer_clear,"ax",%progbits
 431              		.align	2
 432              		.global	uart_buffer_clear
 433              		.code	16
 434              		.thumb_func
 435              		.type	uart_buffer_clear, %function
 436              	uart_buffer_clear:
 437              	.LFB37:
  96:main.c        ****     uint8 i;
 438              		.loc 1 96 0
 439              		.cfi_startproc
 440              	.LVL73:
  98:main.c        ****         UART_rx_buffer[i] = 0;
 441              		.loc 1 98 0
 442 0000 0023     		mov	r3, #0
 443 0002 04E0     		b	.L33
 444              	.LVL74:
 445              	.L34:
  99:main.c        ****     }
 446              		.loc 1 99 0 discriminator 3
 447 0004 0021     		mov	r1, #0
 448 0006 064A     		ldr	r2, .L35
 449 0008 D154     		strb	r1, [r2, r3]
  98:main.c        ****         UART_rx_buffer[i] = 0;
 450              		.loc 1 98 0 discriminator 3
 451 000a 0133     		add	r3, r3, #1
 452              	.LVL75:
 453 000c DBB2     		uxtb	r3, r3
 454              	.LVL76:
 455              	.L33:
  98:main.c        ****         UART_rx_buffer[i] = 0;
 456              		.loc 1 98 0 is_stmt 0 discriminator 1
 457 000e 3F2B     		cmp	r3, #63
 458 0010 F8D9     		bls	.L34
 101:main.c        ****     UART_rx_buffer_process_ind_reset_flag = 1;
 459              		.loc 1 101 0 is_stmt 1
 460 0012 044B     		ldr	r3, .L35+4
 461              	.LVL77:
 462 0014 0022     		mov	r2, #0
 463 0016 5A71     		strb	r2, [r3, #5]
 102:main.c        **** }
 464              		.loc 1 102 0
 465 0018 0132     		add	r2, r2, #1
ARM GAS  C:\Users\Feiyang\AppData\Local\Temp\ccVpylT7.s 			page 14


 466 001a 9A71     		strb	r2, [r3, #6]
 103:main.c        **** 
 467              		.loc 1 103 0
 468              		@ sp needed
 469 001c 7047     		bx	lr
 470              	.L36:
 471 001e C046     		.align	2
 472              	.L35:
 473 0020 00000000 		.word	UART_rx_buffer
 474 0024 00000000 		.word	.LANCHOR0
 475              		.cfi_endproc
 476              	.LFE37:
 477              		.size	uart_buffer_clear, .-uart_buffer_clear
 478              		.section	.text.uart_rx_interrupt,"ax",%progbits
 479              		.align	2
 480              		.global	uart_rx_interrupt
 481              		.code	16
 482              		.thumb_func
 483              		.type	uart_rx_interrupt, %function
 484              	uart_rx_interrupt:
 485              	.LFB45:
 213:main.c        **** 
 214:main.c        **** CY_ISR(uart_rx_interrupt){    
 486              		.loc 1 214 0
 487              		.cfi_startproc
 488 0000 10B5     		push	{r4, lr}
 489              		.cfi_def_cfa_offset 8
 490              		.cfi_offset 4, -8
 491              		.cfi_offset 14, -4
 215:main.c        ****     // get an incomming byte
 216:main.c        ****     uint8 ch = UART_1_UartGetChar();
 492              		.loc 1 216 0
 493 0002 FFF7FEFF 		bl	UART_1_UartGetChar
 494              	.LVL78:
 495 0006 C4B2     		uxtb	r4, r0
 496              	.LVL79:
 217:main.c        ****     uint8 escape_used = 0;
 218:main.c        ****     
 219:main.c        ****     if (ch == UART_RX_HEADER) {
 497              		.loc 1 219 0
 498 0008 A02C     		cmp	r4, #160
 499 000a 08D1     		bne	.L38
 220:main.c        ****         if (UART_rx_last_byte == UART_RX_HEADER) {
 500              		.loc 1 220 0
 501 000c 104B     		ldr	r3, .L44
 502 000e DB79     		ldrb	r3, [r3, #7]
 503 0010 A02B     		cmp	r3, #160
 504 0012 0FD1     		bne	.L43
 221:main.c        ****             uart_buffer_add_char(ch);
 505              		.loc 1 221 0
 506 0014 201C     		mov	r0, r4
 507 0016 FFF7FEFF 		bl	uart_buffer_add_char
 508              	.LVL80:
 222:main.c        ****             escape_used = 1;
 509              		.loc 1 222 0
 510 001a 0123     		mov	r3, #1
 511 001c 0BE0     		b	.L39
ARM GAS  C:\Users\Feiyang\AppData\Local\Temp\ccVpylT7.s 			page 15


 512              	.LVL81:
 513              	.L38:
 223:main.c        ****         }
 224:main.c        ****     }
 225:main.c        ****     else{
 226:main.c        ****         if (UART_rx_last_byte == UART_RX_HEADER){
 514              		.loc 1 226 0
 515 001e 0C4B     		ldr	r3, .L44
 516 0020 DB79     		ldrb	r3, [r3, #7]
 517 0022 A02B     		cmp	r3, #160
 518 0024 01D1     		bne	.L40
 227:main.c        ****             uart_buffer_clear();
 519              		.loc 1 227 0
 520 0026 FFF7FEFF 		bl	uart_buffer_clear
 521              	.LVL82:
 522              	.L40:
 228:main.c        ****         }
 229:main.c        ****         uart_buffer_add_char(ch);
 523              		.loc 1 229 0
 524 002a 201C     		mov	r0, r4
 525 002c FFF7FEFF 		bl	uart_buffer_add_char
 526              	.LVL83:
 217:main.c        ****     
 527              		.loc 1 217 0
 528 0030 0023     		mov	r3, #0
 529 0032 00E0     		b	.L39
 530              	.L43:
 531 0034 0023     		mov	r3, #0
 532              	.LVL84:
 533              	.L39:
 230:main.c        ****         
 231:main.c        ****         // process buffer up to this index
 232:main.c        ****         // uart_rx_buffer_process(UART_rx_buffer_ind - 1);
 233:main.c        ****     }
 234:main.c        ****     
 235:main.c        ****     if (escape_used == 0) {
 534              		.loc 1 235 0
 535 0036 002B     		cmp	r3, #0
 536 0038 02D1     		bne	.L41
 236:main.c        ****         UART_rx_last_byte = ch;
 537              		.loc 1 236 0
 538 003a 054B     		ldr	r3, .L44
 539              	.LVL85:
 540 003c DC71     		strb	r4, [r3, #7]
 541 003e 02E0     		b	.L42
 542              	.LVL86:
 543              	.L41:
 237:main.c        ****     }
 238:main.c        ****     else{
 239:main.c        ****         UART_rx_last_byte = 0;
 544              		.loc 1 239 0
 545 0040 0022     		mov	r2, #0
 546 0042 034B     		ldr	r3, .L44
 547              	.LVL87:
 548 0044 DA71     		strb	r2, [r3, #7]
 549              	.L42:
 240:main.c        ****     }
ARM GAS  C:\Users\Feiyang\AppData\Local\Temp\ccVpylT7.s 			page 16


 241:main.c        ****     
 242:main.c        ****     // UART_debug_UartPutChar(ch); // echo for debugging purpose
 243:main.c        ****     
 244:main.c        ****     // clear interrupt
 245:main.c        ****     UART_1_ClearRxInterruptSource( UART_1_GetRxInterruptSourceMasked() );
 550              		.loc 1 245 0
 551 0046 034B     		ldr	r3, .L44+4
 552 0048 1A68     		ldr	r2, [r3]
 553 004a 034B     		ldr	r3, .L44+8
 554 004c 1A60     		str	r2, [r3]
 246:main.c        **** }
 555              		.loc 1 246 0
 556              		@ sp needed
 557              	.LVL88:
 558 004e 10BD     		pop	{r4, pc}
 559              	.L45:
 560              		.align	2
 561              	.L44:
 562 0050 00000000 		.word	.LANCHOR0
 563 0054 CC0F0740 		.word	1074204620
 564 0058 C00F0740 		.word	1074204608
 565              		.cfi_endproc
 566              	.LFE45:
 567              		.size	uart_rx_interrupt, .-uart_rx_interrupt
 568              		.section	.text.find_location_number,"ax",%progbits
 569              		.align	2
 570              		.global	find_location_number
 571              		.code	16
 572              		.thumb_func
 573              		.type	find_location_number, %function
 574              	find_location_number:
 575              	.LFB38:
 109:main.c        ****     return (row*8 + col);
 576              		.loc 1 109 0
 577              		.cfi_startproc
 578              	.LVL89:
 110:main.c        **** }
 579              		.loc 1 110 0
 580 0000 C000     		lsl	r0, r0, #3
 581              	.LVL90:
 582 0002 0818     		add	r0, r1, r0
 583 0004 C0B2     		uxtb	r0, r0
 111:main.c        **** 
 584              		.loc 1 111 0
 585              		@ sp needed
 586 0006 7047     		bx	lr
 587              		.cfi_endproc
 588              	.LFE38:
 589              		.size	find_location_number, .-find_location_number
 590              		.section	.text.uart_rx_buffer_process_set_ssvep,"ax",%progbits
 591              		.align	2
 592              		.global	uart_rx_buffer_process_set_ssvep
 593              		.code	16
 594              		.thumb_func
 595              		.type	uart_rx_buffer_process_set_ssvep, %function
 596              	uart_rx_buffer_process_set_ssvep:
 597              	.LFB39:
ARM GAS  C:\Users\Feiyang\AppData\Local\Temp\ccVpylT7.s 			page 17


 113:main.c        ****     if ( (8 < buffer_ind_max) && (buffer_ind_max < 37) ){
 598              		.loc 1 113 0
 599              		.cfi_startproc
 600              	.LVL91:
 601 0000 F0B5     		push	{r4, r5, r6, r7, lr}
 602              		.cfi_def_cfa_offset 20
 603              		.cfi_offset 4, -20
 604              		.cfi_offset 5, -16
 605              		.cfi_offset 6, -12
 606              		.cfi_offset 7, -8
 607              		.cfi_offset 14, -4
 608 0002 4746     		mov	r7, r8
 609 0004 80B4     		push	{r7}
 610              		.cfi_def_cfa_offset 24
 611              		.cfi_offset 8, -24
 612 0006 011C     		mov	r1, r0
 114:main.c        ****         uint8 i;
 613              		.loc 1 114 0
 614 0008 031C     		mov	r3, r0
 615 000a 093B     		sub	r3, r3, #9
 616 000c 1B2B     		cmp	r3, #27
 617 000e 24D9     		bls	.L60
 618 0010 27E0     		b	.L61
 619              	.LVL92:
 620              	.L57:
 621              	.LBB4:
 117:main.c        ****                 uint8 interval, row, col; 
 622              		.loc 1 117 0
 623 0012 8B42     		cmp	r3, r1
 624 0014 1ED1     		bne	.L50
 625              	.LBB5:
 120:main.c        ****                 for (row = 0; row < 8; row++){ // sweep each byte (row)
 626              		.loc 1 120 0
 627 0016 8846     		mov	r8, r1
 628 0018 264B     		ldr	r3, .L62
 629              	.LVL93:
 630 001a 5F5C     		ldrb	r7, [r3, r1]
 631              	.LVL94:
 121:main.c        ****                     uint8 this_byte = UART_rx_buffer[(buffer_ind_max-8+row)];
 632              		.loc 1 121 0
 633 001c 0025     		mov	r5, #0
 634 001e 16E0     		b	.L51
 635              	.LVL95:
 636              	.L55:
 637              	.LBB6:
 122:main.c        ****                     for (col = 0; col < 8; col++){ // sweep each bit (column)
 638              		.loc 1 122 0
 639 0020 4346     		mov	r3, r8
 640 0022 083B     		sub	r3, r3, #8
 641 0024 5B19     		add	r3, r3, r5
 642 0026 234A     		ldr	r2, .L62
 643 0028 D65C     		ldrb	r6, [r2, r3]
 644              	.LVL96:
 123:main.c        ****                         uint8 mask = (128 >> col); // mask for selecting a bit
 645              		.loc 1 123 0
 646 002a 0024     		mov	r4, #0
 647 002c 0BE0     		b	.L52
ARM GAS  C:\Users\Feiyang\AppData\Local\Temp\ccVpylT7.s 			page 18


 648              	.LVL97:
 649              	.L54:
 650              	.LBB7:
 124:main.c        ****                         if ( (this_byte & mask) > 0 ){ // if this bit is 1
 651              		.loc 1 124 0
 652 002e 8023     		mov	r3, #128
 653 0030 2341     		asr	r3, r3, r4
 654              	.LVL98:
 125:main.c        ****                             uint8 id = find_location_number(row, col);
 655              		.loc 1 125 0
 656 0032 3342     		tst	r3, r6
 657 0034 05D0     		beq	.L53
 658              	.LBB8:
 126:main.c        ****                             SSVEP_intervals_next[id] = interval;
 659              		.loc 1 126 0
 660 0036 281C     		mov	r0, r5
 661 0038 211C     		mov	r1, r4
 662 003a FFF7FEFF 		bl	find_location_number
 663              	.LVL99:
 127:main.c        ****                         }
 664              		.loc 1 127 0
 665 003e 1E4B     		ldr	r3, .L62+4
 666 0040 1F54     		strb	r7, [r3, r0]
 667              	.LVL100:
 668              	.L53:
 669              	.LBE8:
 670              	.LBE7:
 123:main.c        ****                         uint8 mask = (128 >> col); // mask for selecting a bit
 671              		.loc 1 123 0 discriminator 2
 672 0042 0134     		add	r4, r4, #1
 673              	.LVL101:
 674 0044 E4B2     		uxtb	r4, r4
 675              	.LVL102:
 676              	.L52:
 123:main.c        ****                         uint8 mask = (128 >> col); // mask for selecting a bit
 677              		.loc 1 123 0 is_stmt 0 discriminator 1
 678 0046 072C     		cmp	r4, #7
 679 0048 F1D9     		bls	.L54
 680              	.LBE6:
 121:main.c        ****                     uint8 this_byte = UART_rx_buffer[(buffer_ind_max-8+row)];
 681              		.loc 1 121 0 is_stmt 1 discriminator 2
 682 004a 0135     		add	r5, r5, #1
 683              	.LVL103:
 684 004c EDB2     		uxtb	r5, r5
 685              	.LVL104:
 686              	.L51:
 121:main.c        ****                     uint8 this_byte = UART_rx_buffer[(buffer_ind_max-8+row)];
 687              		.loc 1 121 0 is_stmt 0 discriminator 1
 688 004e 072D     		cmp	r5, #7
 689 0050 E6D9     		bls	.L55
 690 0052 2CE0     		b	.L47
 691              	.LVL105:
 692              	.L50:
 693              	.LBE5:
 116:main.c        ****             if ( i == buffer_ind_max ){
 694              		.loc 1 116 0 is_stmt 1 discriminator 2
 695 0054 0933     		add	r3, r3, #9
ARM GAS  C:\Users\Feiyang\AppData\Local\Temp\ccVpylT7.s 			page 19


 696              	.LVL106:
 697 0056 DBB2     		uxtb	r3, r3
 698              	.LVL107:
 699 0058 00E0     		b	.L48
 700              	.LVL108:
 701              	.L60:
 702              	.LBE4:
 703 005a 0923     		mov	r3, #9
 704              	.L48:
 705              	.LVL109:
 706              	.LBB9:
 116:main.c        ****             if ( i == buffer_ind_max ){
 707              		.loc 1 116 0 is_stmt 0 discriminator 1
 708 005c 242B     		cmp	r3, #36
 709 005e D8D9     		bls	.L57
 710 0060 25E0     		b	.L47
 711              	.LVL110:
 712              	.L61:
 713              	.LBE9:
 135:main.c        ****         if (UART_rx_buffer[buffer_ind_max] == UART_RX_FOOTER){
 714              		.loc 1 135 0 is_stmt 1
 715 0062 2528     		cmp	r0, #37
 716 0064 23D1     		bne	.L47
 136:main.c        ****             uint8 crc8sum = CRC8( &UART_rx_buffer, buffer_ind_max );
 717              		.loc 1 136 0
 718 0066 134B     		ldr	r3, .L62
 719 0068 1B5C     		ldrb	r3, [r3, r0]
 720 006a FF2B     		cmp	r3, #255
 721 006c 1FD1     		bne	.L47
 722              	.LBB10:
 137:main.c        ****             UART_1_UartPutChar(crc8sum);
 723              		.loc 1 137 0
 724 006e 1148     		ldr	r0, .L62
 725              	.LVL111:
 726 0070 FFF7FEFF 		bl	CRC8
 727              	.LVL112:
 138:main.c        ****             // apply this new pattern
 728              		.loc 1 138 0
 729 0074 FFF7FEFF 		bl	UART_1_SpiUartWriteTxData
 730              	.LVL113:
 140:main.c        ****             uint8 i;
 731              		.loc 1 140 0
 732 0078 0022     		mov	r2, #0
 733 007a 104B     		ldr	r3, .L62+8
 734 007c 1A70     		strb	r2, [r3]
 735              	.LVL114:
 142:main.c        ****                 SSVEP_intervals[i] = SSVEP_intervals_next[i];
 736              		.loc 1 142 0
 737 007e 0024     		mov	r4, #0
 738 0080 10E0     		b	.L58
 739              	.LVL115:
 740              	.L59:
 143:main.c        ****                 SSVEP_states[i] = LED_OFF;
 741              		.loc 1 143 0 discriminator 3
 742 0082 0D4B     		ldr	r3, .L62+4
 743 0084 1A5D     		ldrb	r2, [r3, r4]
 744 0086 0E4B     		ldr	r3, .L62+12
ARM GAS  C:\Users\Feiyang\AppData\Local\Temp\ccVpylT7.s 			page 20


 745 0088 1A55     		strb	r2, [r3, r4]
 144:main.c        ****                 SSVEP_next_toggle[i] = 0;
 746              		.loc 1 144 0 discriminator 3
 747 008a 0122     		mov	r2, #1
 748 008c 0D4B     		ldr	r3, .L62+16
 749 008e 1A55     		strb	r2, [r3, r4]
 145:main.c        ****                 write_pin(i, LED_OFF);
 750              		.loc 1 145 0 discriminator 3
 751 0090 A200     		lsl	r2, r4, #2
 752 0092 0021     		mov	r1, #0
 753 0094 0C4B     		ldr	r3, .L62+20
 754 0096 D150     		str	r1, [r2, r3]
 146:main.c        ****             }
 755              		.loc 1 146 0 discriminator 3
 756 0098 201C     		mov	r0, r4
 757 009a 0131     		add	r1, r1, #1
 758 009c FFF7FEFF 		bl	write_pin
 759              	.LVL116:
 142:main.c        ****                 SSVEP_intervals[i] = SSVEP_intervals_next[i];
 760              		.loc 1 142 0 discriminator 3
 761 00a0 0134     		add	r4, r4, #1
 762              	.LVL117:
 763 00a2 E4B2     		uxtb	r4, r4
 764              	.LVL118:
 765              	.L58:
 142:main.c        ****                 SSVEP_intervals[i] = SSVEP_intervals_next[i];
 766              		.loc 1 142 0 is_stmt 0 discriminator 1
 767 00a4 3F2C     		cmp	r4, #63
 768 00a6 ECD9     		bls	.L59
 148:main.c        ****         }
 769              		.loc 1 148 0 is_stmt 1
 770 00a8 0122     		mov	r2, #1
 771 00aa 044B     		ldr	r3, .L62+8
 772 00ac 1A70     		strb	r2, [r3]
 773              	.LVL119:
 774              	.L47:
 775              	.LBE10:
 152:main.c        **** 
 776              		.loc 1 152 0
 777              		@ sp needed
 778 00ae 04BC     		pop	{r2}
 779 00b0 9046     		mov	r8, r2
 780 00b2 F0BD     		pop	{r4, r5, r6, r7, pc}
 781              	.L63:
 782              		.align	2
 783              	.L62:
 784 00b4 00000000 		.word	UART_rx_buffer
 785 00b8 00000000 		.word	SSVEP_intervals_next
 786 00bc 00000000 		.word	.LANCHOR1
 787 00c0 00000000 		.word	SSVEP_intervals
 788 00c4 00000000 		.word	SSVEP_states
 789 00c8 00000000 		.word	SSVEP_next_toggle
 790              		.cfi_endproc
 791              	.LFE39:
 792              		.size	uart_rx_buffer_process_set_ssvep, .-uart_rx_buffer_process_set_ssvep
 793              		.section	.text.ssvep_buffer_reset,"ax",%progbits
 794              		.align	2
ARM GAS  C:\Users\Feiyang\AppData\Local\Temp\ccVpylT7.s 			page 21


 795              		.global	ssvep_buffer_reset
 796              		.code	16
 797              		.thumb_func
 798              		.type	ssvep_buffer_reset, %function
 799              	ssvep_buffer_reset:
 800              	.LFB40:
 154:main.c        ****     uint8 i; 
 801              		.loc 1 154 0
 802              		.cfi_startproc
 803              	.LVL120:
 156:main.c        ****         SSVEP_intervals_next[i] = 0;
 804              		.loc 1 156 0
 805 0000 0023     		mov	r3, #0
 806 0002 04E0     		b	.L65
 807              	.LVL121:
 808              	.L66:
 157:main.c        ****     }
 809              		.loc 1 157 0 discriminator 3
 810 0004 0021     		mov	r1, #0
 811 0006 034A     		ldr	r2, .L67
 812 0008 D154     		strb	r1, [r2, r3]
 156:main.c        ****         SSVEP_intervals_next[i] = 0;
 813              		.loc 1 156 0 discriminator 3
 814 000a 0133     		add	r3, r3, #1
 815              	.LVL122:
 816 000c DBB2     		uxtb	r3, r3
 817              	.LVL123:
 818              	.L65:
 156:main.c        ****         SSVEP_intervals_next[i] = 0;
 819              		.loc 1 156 0 is_stmt 0 discriminator 1
 820 000e 3F2B     		cmp	r3, #63
 821 0010 F8D9     		bls	.L66
 160:main.c        **** 
 822              		.loc 1 160 0 is_stmt 1
 823              		@ sp needed
 824 0012 7047     		bx	lr
 825              	.L68:
 826              		.align	2
 827              	.L67:
 828 0014 00000000 		.word	SSVEP_intervals_next
 829              		.cfi_endproc
 830              	.LFE40:
 831              		.size	ssvep_buffer_reset, .-ssvep_buffer_reset
 832              		.section	.text.uart_rx_buffer_process,"ax",%progbits
 833              		.align	2
 834              		.global	uart_rx_buffer_process
 835              		.code	16
 836              		.thumb_func
 837              		.type	uart_rx_buffer_process, %function
 838              	uart_rx_buffer_process:
 839              	.LFB41:
 162:main.c        ****     if (buffer_ind_max == 0){
 840              		.loc 1 162 0
 841              		.cfi_startproc
 842              	.LVL124:
 843 0000 08B5     		push	{r3, lr}
 844              		.cfi_def_cfa_offset 8
ARM GAS  C:\Users\Feiyang\AppData\Local\Temp\ccVpylT7.s 			page 22


 845              		.cfi_offset 3, -8
 846              		.cfi_offset 14, -4
 163:main.c        ****         UART_rx_type = UART_rx_buffer[ buffer_ind_max ];
 847              		.loc 1 163 0
 848 0002 0028     		cmp	r0, #0
 849 0004 08D1     		bne	.L70
 164:main.c        ****         if (UART_rx_type == SET_SSVEP){
 850              		.loc 1 164 0
 851 0006 084B     		ldr	r3, .L72
 852 0008 1B5C     		ldrb	r3, [r3, r0]
 853 000a 084A     		ldr	r2, .L72+4
 854 000c 1372     		strb	r3, [r2, #8]
 165:main.c        ****             ssvep_buffer_reset();
 855              		.loc 1 165 0
 856 000e 012B     		cmp	r3, #1
 857 0010 08D1     		bne	.L69
 166:main.c        ****         }
 858              		.loc 1 166 0
 859 0012 FFF7FEFF 		bl	ssvep_buffer_reset
 860              	.LVL125:
 861 0016 05E0     		b	.L69
 862              	.LVL126:
 863              	.L70:
 170:main.c        ****             uart_rx_buffer_process_set_ssvep(buffer_ind_max);
 864              		.loc 1 170 0
 865 0018 044B     		ldr	r3, .L72+4
 866 001a 1B7A     		ldrb	r3, [r3, #8]
 867 001c 012B     		cmp	r3, #1
 868 001e 01D1     		bne	.L69
 171:main.c        ****         }
 869              		.loc 1 171 0
 870 0020 FFF7FEFF 		bl	uart_rx_buffer_process_set_ssvep
 871              	.LVL127:
 872              	.L69:
 174:main.c        **** 
 873              		.loc 1 174 0
 874              		@ sp needed
 875 0024 08BD     		pop	{r3, pc}
 876              	.L73:
 877 0026 C046     		.align	2
 878              	.L72:
 879 0028 00000000 		.word	UART_rx_buffer
 880 002c 00000000 		.word	.LANCHOR0
 881              		.cfi_endproc
 882              	.LFE41:
 883              		.size	uart_rx_buffer_process, .-uart_rx_buffer_process
 884              		.section	.text.ssvep_flip,"ax",%progbits
 885              		.align	2
 886              		.global	ssvep_flip
 887              		.code	16
 888              		.thumb_func
 889              		.type	ssvep_flip, %function
 890              	ssvep_flip:
 891              	.LFB42:
 176:main.c        ****     if (SSVEP_states[pin_num] == LED_ON){
 892              		.loc 1 176 0
 893              		.cfi_startproc
ARM GAS  C:\Users\Feiyang\AppData\Local\Temp\ccVpylT7.s 			page 23


 894              	.LVL128:
 895 0000 08B5     		push	{r3, lr}
 896              		.cfi_def_cfa_offset 8
 897              		.cfi_offset 3, -8
 898              		.cfi_offset 14, -4
 177:main.c        ****         SSVEP_states[pin_num] = LED_OFF;
 899              		.loc 1 177 0
 900 0002 084B     		ldr	r3, .L77
 901 0004 1B5C     		ldrb	r3, [r3, r0]
 902 0006 002B     		cmp	r3, #0
 903 0008 03D1     		bne	.L75
 178:main.c        ****     }
 904              		.loc 1 178 0
 905 000a 0122     		mov	r2, #1
 906 000c 054B     		ldr	r3, .L77
 907 000e 1A54     		strb	r2, [r3, r0]
 908 0010 02E0     		b	.L76
 909              	.L75:
 181:main.c        ****     }
 910              		.loc 1 181 0
 911 0012 0022     		mov	r2, #0
 912 0014 034B     		ldr	r3, .L77
 913 0016 1A54     		strb	r2, [r3, r0]
 914              	.L76:
 183:main.c        **** }
 915              		.loc 1 183 0
 916 0018 024B     		ldr	r3, .L77
 917 001a 195C     		ldrb	r1, [r3, r0]
 918 001c FFF7FEFF 		bl	write_pin
 919              	.LVL129:
 184:main.c        **** 
 920              		.loc 1 184 0
 921              		@ sp needed
 922 0020 08BD     		pop	{r3, pc}
 923              	.L78:
 924 0022 C046     		.align	2
 925              	.L77:
 926 0024 00000000 		.word	SSVEP_states
 927              		.cfi_endproc
 928              	.LFE42:
 929              		.size	ssvep_flip, .-ssvep_flip
 930              		.section	.text.init_data,"ax",%progbits
 931              		.align	2
 932              		.global	init_data
 933              		.code	16
 934              		.thumb_func
 935              		.type	init_data, %function
 936              	init_data:
 937              	.LFB43:
 186:main.c        ****     uint8 i;
 938              		.loc 1 186 0
 939              		.cfi_startproc
 940 0000 38B5     		push	{r3, r4, r5, lr}
 941              		.cfi_def_cfa_offset 16
 942              		.cfi_offset 3, -16
 943              		.cfi_offset 4, -12
 944              		.cfi_offset 5, -8
ARM GAS  C:\Users\Feiyang\AppData\Local\Temp\ccVpylT7.s 			page 24


 945              		.cfi_offset 14, -4
 946              	.LVL130:
 188:main.c        ****         SSVEP_intervals[i] = 0;
 947              		.loc 1 188 0
 948 0002 0024     		mov	r4, #0
 949 0004 10E0     		b	.L80
 950              	.LVL131:
 951              	.L81:
 189:main.c        ****         SSVEP_states[i] = LED_OFF;
 952              		.loc 1 189 0 discriminator 3
 953 0006 0025     		mov	r5, #0
 954 0008 094B     		ldr	r3, .L82
 955 000a 1D55     		strb	r5, [r3, r4]
 190:main.c        ****         SSVEP_next_toggle[i] = 0;
 956              		.loc 1 190 0 discriminator 3
 957 000c 0122     		mov	r2, #1
 958 000e 094B     		ldr	r3, .L82+4
 959 0010 1A55     		strb	r2, [r3, r4]
 191:main.c        ****         write_pin(i, LED_OFF);
 960              		.loc 1 191 0 discriminator 3
 961 0012 A200     		lsl	r2, r4, #2
 962 0014 084B     		ldr	r3, .L82+8
 963 0016 D550     		str	r5, [r2, r3]
 192:main.c        ****         SSVEP_intervals_next[i] = 0;
 964              		.loc 1 192 0 discriminator 3
 965 0018 201C     		mov	r0, r4
 966 001a 0121     		mov	r1, #1
 967 001c FFF7FEFF 		bl	write_pin
 968              	.LVL132:
 193:main.c        ****     }
 969              		.loc 1 193 0 discriminator 3
 970 0020 064B     		ldr	r3, .L82+12
 971 0022 1D55     		strb	r5, [r3, r4]
 188:main.c        ****         SSVEP_intervals[i] = 0;
 972              		.loc 1 188 0 discriminator 3
 973 0024 0134     		add	r4, r4, #1
 974              	.LVL133:
 975 0026 E4B2     		uxtb	r4, r4
 976              	.LVL134:
 977              	.L80:
 188:main.c        ****         SSVEP_intervals[i] = 0;
 978              		.loc 1 188 0 is_stmt 0 discriminator 1
 979 0028 3F2C     		cmp	r4, #63
 980 002a ECD9     		bls	.L81
 195:main.c        **** 
 981              		.loc 1 195 0 is_stmt 1
 982              		@ sp needed
 983              	.LVL135:
 984 002c 38BD     		pop	{r3, r4, r5, pc}
 985              	.L83:
 986 002e C046     		.align	2
 987              	.L82:
 988 0030 00000000 		.word	SSVEP_intervals
 989 0034 00000000 		.word	SSVEP_states
 990 0038 00000000 		.word	SSVEP_next_toggle
 991 003c 00000000 		.word	SSVEP_intervals_next
 992              		.cfi_endproc
ARM GAS  C:\Users\Feiyang\AppData\Local\Temp\ccVpylT7.s 			page 25


 993              	.LFE43:
 994              		.size	init_data, .-init_data
 995              		.section	.text.main,"ax",%progbits
 996              		.align	2
 997              		.global	main
 998              		.code	16
 999              		.thumb_func
 1000              		.type	main, %function
 1001              	main:
 1002              	.LFB46:
 247:main.c        **** 
 248:main.c        **** 
 249:main.c        **** int main(void)
 250:main.c        **** {
 1003              		.loc 1 250 0
 1004              		.cfi_startproc
 1005 0000 30B5     		push	{r4, r5, lr}
 1006              		.cfi_def_cfa_offset 12
 1007              		.cfi_offset 4, -12
 1008              		.cfi_offset 5, -8
 1009              		.cfi_offset 14, -4
 1010 0002 83B0     		sub	sp, sp, #12
 1011              		.cfi_def_cfa_offset 24
 251:main.c        ****     CyGlobalIntEnable; /* Enable global interrupts. */
 1012              		.loc 1 251 0
 1013              	@ 251 "main.c" 1
 1014 0004 62B6     		CPSIE   i
 1015              	@ 0 "" 2
 252:main.c        ****     isr_ms_StartEx(timer_interrupt);
 1016              		.loc 1 252 0
 1017              		.code	16
 1018 0006 4B48     		ldr	r0, .L94
 1019 0008 FFF7FEFF 		bl	isr_ms_StartEx
 1020              	.LVL136:
 253:main.c        ****     isr_uart_rx_StartEx(uart_rx_interrupt);
 1021              		.loc 1 253 0
 1022 000c 4A48     		ldr	r0, .L94+4
 1023 000e FFF7FEFF 		bl	isr_uart_rx_StartEx
 1024              	.LVL137:
 254:main.c        **** 
 255:main.c        ****     /* Place your initialization/startup code here (e.g. MyInst_Start()) */
 256:main.c        ****     init_data();
 1025              		.loc 1 256 0
 1026 0012 FFF7FEFF 		bl	init_data
 1027              	.LVL138:
 257:main.c        ****     SSVEP_intervals[0] = 11;
 1028              		.loc 1 257 0
 1029 0016 494B     		ldr	r3, .L94+8
 1030 0018 0B20     		mov	r0, #11
 1031 001a 1870     		strb	r0, [r3]
 258:main.c        ****     SSVEP_intervals[1] = 15;
 1032              		.loc 1 258 0
 1033 001c 0F21     		mov	r1, #15
 1034 001e 5970     		strb	r1, [r3, #1]
 259:main.c        ****     SSVEP_intervals[2] = 12;
 1035              		.loc 1 259 0
 1036 0020 0C22     		mov	r2, #12
ARM GAS  C:\Users\Feiyang\AppData\Local\Temp\ccVpylT7.s 			page 26


 1037 0022 9A70     		strb	r2, [r3, #2]
 260:main.c        ****     SSVEP_intervals[3] = 21;
 1038              		.loc 1 260 0
 1039 0024 1524     		mov	r4, #21
 1040 0026 DC70     		strb	r4, [r3, #3]
 261:main.c        ****     SSVEP_intervals[4] = 23;
 1041              		.loc 1 261 0
 1042 0028 1725     		mov	r5, #23
 1043 002a 1D71     		strb	r5, [r3, #4]
 262:main.c        ****     SSVEP_intervals[5] = 21;
 1044              		.loc 1 262 0
 1045 002c 5C71     		strb	r4, [r3, #5]
 263:main.c        ****     SSVEP_intervals[6] = 27;
 1046              		.loc 1 263 0
 1047 002e 0634     		add	r4, r4, #6
 1048 0030 9C71     		strb	r4, [r3, #6]
 264:main.c        ****     SSVEP_intervals[7] = 12;
 1049              		.loc 1 264 0
 1050 0032 DA71     		strb	r2, [r3, #7]
 265:main.c        ****     SSVEP_intervals[8] = 11;
 1051              		.loc 1 265 0
 1052 0034 1872     		strb	r0, [r3, #8]
 266:main.c        ****     SSVEP_intervals[9] = 15;
 1053              		.loc 1 266 0
 1054 0036 5972     		strb	r1, [r3, #9]
 267:main.c        ****     SSVEP_intervals[10] = 17;
 1055              		.loc 1 267 0
 1056 0038 0231     		add	r1, r1, #2
 1057 003a 9972     		strb	r1, [r3, #10]
 268:main.c        ****     SSVEP_intervals[11] = 19;
 1058              		.loc 1 268 0
 1059 003c 0231     		add	r1, r1, #2
 1060 003e D972     		strb	r1, [r3, #11]
 269:main.c        ****     SSVEP_intervals[12] = 16;
 1061              		.loc 1 269 0
 1062 0040 0339     		sub	r1, r1, #3
 1063 0042 1973     		strb	r1, [r3, #12]
 270:main.c        ****     SSVEP_intervals[13] = 12;
 1064              		.loc 1 270 0
 1065 0044 5A73     		strb	r2, [r3, #13]
 271:main.c        ****     SSVEP_intervals[14] = 10;
 1066              		.loc 1 271 0
 1067 0046 023A     		sub	r2, r2, #2
 1068 0048 9A73     		strb	r2, [r3, #14]
 272:main.c        ****     SSVEP_intervals[15] = 25;
 1069              		.loc 1 272 0
 1070 004a 0F32     		add	r2, r2, #15
 1071 004c DA73     		strb	r2, [r3, #15]
 273:main.c        ****     
 274:main.c        ****     /* Start the components */
 275:main.c        ****     Timer_ms_Start();
 1072              		.loc 1 275 0
 1073 004e FFF7FEFF 		bl	Timer_ms_Start
 1074              	.LVL139:
 276:main.c        ****     UART_1_Start();
 1075              		.loc 1 276 0
 1076 0052 FFF7FEFF 		bl	UART_1_Start
ARM GAS  C:\Users\Feiyang\AppData\Local\Temp\ccVpylT7.s 			page 27


 1077              	.LVL140:
 277:main.c        ****     UART_debug_Start();
 1078              		.loc 1 277 0
 1079 0056 FFF7FEFF 		bl	UART_debug_Start
 1080              	.LVL141:
 278:main.c        ****     Timer_2_Start();
 1081              		.loc 1 278 0
 1082 005a FFF7FEFF 		bl	Timer_2_Start
 1083              	.LVL142:
 1084              	.L92:
 279:main.c        ****     
 280:main.c        ****     uint8 i;
 281:main.c        ****     for(;;)
 282:main.c        ****     {
 283:main.c        ****         if (operating_mode == SSVEP){
 1085              		.loc 1 283 0
 1086 005e 384B     		ldr	r3, .L94+12
 1087 0060 1B78     		ldrb	r3, [r3]
 1088 0062 012B     		cmp	r3, #1
 1089 0064 46D1     		bne	.L85
 284:main.c        ****             
 285:main.c        ****             if (mills > 5000){
 1090              		.loc 1 285 0
 1091 0066 374B     		ldr	r3, .L94+16
 1092 0068 1B68     		ldr	r3, [r3]
 1093 006a 374A     		ldr	r2, .L94+20
 1094 006c 9342     		cmp	r3, r2
 1095 006e 06D9     		bls	.L86
 286:main.c        ****                 tic = mills; // for evaluation
 1096              		.loc 1 286 0
 1097 0070 364A     		ldr	r2, .L94+24
 1098 0072 1360     		str	r3, [r2]
 287:main.c        ****                 Timer_2_WriteCounter(0);
 1099              		.loc 1 287 0
 1100 0074 0020     		mov	r0, #0
 1101 0076 FFF7FEFF 		bl	Timer_2_WriteCounter
 1102              	.LVL143:
 288:main.c        ****                 Timer_2_Enable();
 1103              		.loc 1 288 0
 1104 007a FFF7FEFF 		bl	Timer_2_Enable
 1105              	.LVL144:
 1106              	.L86:
 250:main.c        ****     CyGlobalIntEnable; /* Enable global interrupts. */
 1107              		.loc 1 250 0 discriminator 1
 1108 007e 0024     		mov	r4, #0
 1109 0080 12E0     		b	.L87
 1110              	.LVL145:
 1111              	.L89:
 289:main.c        ****             }
 290:main.c        ****             
 291:main.c        ****             // sweep each pin
 292:main.c        ****             for (i=0; i < NUM_LOCATIONS; i++){
 293:main.c        ****                 
 294:main.c        ****                 // if enabled
 295:main.c        ****                 if (SSVEP_intervals[i] > 0){
 1112              		.loc 1 295 0
 1113 0082 2E4B     		ldr	r3, .L94+8
ARM GAS  C:\Users\Feiyang\AppData\Local\Temp\ccVpylT7.s 			page 28


 1114 0084 1B5D     		ldrb	r3, [r3, r4]
 1115 0086 002B     		cmp	r3, #0
 1116 0088 0CD0     		beq	.L88
 1117              	.LBB11:
 296:main.c        ****                     
 297:main.c        ****                     // cache this time instance
 298:main.c        ****                     uint32 this_instance = mills;
 1118              		.loc 1 298 0
 1119 008a 2E4A     		ldr	r2, .L94+16
 1120 008c 1068     		ldr	r0, [r2]
 1121              	.LVL146:
 299:main.c        ****                     
 300:main.c        ****                     // if toggle time reached
 301:main.c        ****                     if (this_instance > SSVEP_next_toggle[i]){
 1122              		.loc 1 301 0
 1123 008e A200     		lsl	r2, r4, #2
 1124 0090 2F4D     		ldr	r5, .L94+28
 1125 0092 5259     		ldr	r2, [r2, r5]
 1126 0094 8242     		cmp	r2, r0
 1127 0096 05D2     		bcs	.L88
 302:main.c        ****                         
 303:main.c        ****                         // set time for next toggle
 304:main.c        ****                         SSVEP_next_toggle[i] = SSVEP_next_toggle[i] + SSVEP_intervals[i];
 1128              		.loc 1 304 0
 1129 0098 D318     		add	r3, r2, r3
 1130 009a A100     		lsl	r1, r4, #2
 1131 009c 4B51     		str	r3, [r1, r5]
 305:main.c        ****                         
 306:main.c        ****                         ssvep_flip(i); // toggle
 1132              		.loc 1 306 0
 1133 009e 201C     		mov	r0, r4
 1134              	.LVL147:
 1135 00a0 FFF7FEFF 		bl	ssvep_flip
 1136              	.LVL148:
 1137              	.L88:
 1138              	.LBE11:
 292:main.c        ****                 
 1139              		.loc 1 292 0 discriminator 2
 1140 00a4 0134     		add	r4, r4, #1
 1141              	.LVL149:
 1142 00a6 E4B2     		uxtb	r4, r4
 1143              	.LVL150:
 1144              	.L87:
 292:main.c        ****                 
 1145              		.loc 1 292 0 is_stmt 0 discriminator 1
 1146 00a8 3F2C     		cmp	r4, #63
 1147 00aa EAD9     		bls	.L89
 307:main.c        ****                     }
 308:main.c        ****                 }
 309:main.c        ****             }
 310:main.c        ****             
 311:main.c        ****             if (mills > 5000){ // for evaluation
 1148              		.loc 1 311 0 is_stmt 1
 1149 00ac 254B     		ldr	r3, .L94+16
 1150 00ae 1A68     		ldr	r2, [r3]
 1151 00b0 254B     		ldr	r3, .L94+20
 1152 00b2 9A42     		cmp	r2, r3
ARM GAS  C:\Users\Feiyang\AppData\Local\Temp\ccVpylT7.s 			page 29


 1153 00b4 1ED9     		bls	.L85
 312:main.c        ****                 if (sweep_i < 100){
 1154              		.loc 1 312 0
 1155 00b6 234B     		ldr	r3, .L94+16
 1156 00b8 5B7A     		ldrb	r3, [r3, #9]
 1157 00ba 632B     		cmp	r3, #99
 1158 00bc 12D8     		bhi	.L90
 313:main.c        ****                     // toc = mills - tic;
 314:main.c        ****                     Timer_2_Stop();
 1159              		.loc 1 314 0
 1160 00be FFF7FEFF 		bl	Timer_2_Stop
 1161              	.LVL151:
 315:main.c        ****                     sweep_time[sweep_i] = Timer_2_ReadCounter() * 10 / 12;
 1162              		.loc 1 315 0
 1163 00c2 204C     		ldr	r4, .L94+16
 1164              	.LVL152:
 1165 00c4 657A     		ldrb	r5, [r4, #9]
 1166 00c6 FFF7FEFF 		bl	Timer_2_ReadCounter
 1167              	.LVL153:
 1168 00ca 8300     		lsl	r3, r0, #2
 1169 00cc 1818     		add	r0, r3, r0
 1170 00ce 4000     		lsl	r0, r0, #1
 1171 00d0 0C21     		mov	r1, #12
 1172 00d2 FFF7FEFF 		bl	__aeabi_uidiv
 1173              	.LVL154:
 1174 00d6 6D00     		lsl	r5, r5, #1
 1175 00d8 1E4B     		ldr	r3, .L94+32
 1176 00da E852     		strh	r0, [r5, r3]
 316:main.c        ****                     sweep_i++;
 1177              		.loc 1 316 0
 1178 00dc 637A     		ldrb	r3, [r4, #9]
 1179 00de 0133     		add	r3, r3, #1
 1180 00e0 6372     		strb	r3, [r4, #9]
 1181 00e2 07E0     		b	.L85
 1182              	.LVL155:
 1183              	.L90:
 317:main.c        ****                 }
 318:main.c        ****                 else if (sweep_i == 100){
 1184              		.loc 1 318 0
 1185 00e4 642B     		cmp	r3, #100
 1186 00e6 05D1     		bne	.L85
 319:main.c        ****                     Timer_2_Stop();
 1187              		.loc 1 319 0
 1188 00e8 FFF7FEFF 		bl	Timer_2_Stop
 1189              	.LVL156:
 320:main.c        ****                     sweep_i++;
 1190              		.loc 1 320 0
 1191 00ec 154A     		ldr	r2, .L94+16
 1192 00ee 537A     		ldrb	r3, [r2, #9]
 1193 00f0 0133     		add	r3, r3, #1
 1194 00f2 5372     		strb	r3, [r2, #9]
 1195              	.LVL157:
 1196              	.L85:
 321:main.c        ****                 }
 322:main.c        ****             }
 323:main.c        ****         }
 324:main.c        ****         
ARM GAS  C:\Users\Feiyang\AppData\Local\Temp\ccVpylT7.s 			page 30


 325:main.c        ****         if (UART_rx_buffer_process_ind_reset_flag > 0){
 1197              		.loc 1 325 0
 1198 00f4 134B     		ldr	r3, .L94+16
 1199 00f6 9B79     		ldrb	r3, [r3, #6]
 1200 00f8 002B     		cmp	r3, #0
 1201 00fa 03D0     		beq	.L91
 326:main.c        ****             UART_rx_buffer_process_ind = 0;
 1202              		.loc 1 326 0
 1203 00fc 114B     		ldr	r3, .L94+16
 1204 00fe 0022     		mov	r2, #0
 1205 0100 9A72     		strb	r2, [r3, #10]
 327:main.c        ****             UART_rx_buffer_process_ind_reset_flag = 0;
 1206              		.loc 1 327 0
 1207 0102 9A71     		strb	r2, [r3, #6]
 1208              	.L91:
 328:main.c        ****         }
 329:main.c        ****         if ( (UART_rx_buffer_ind-1) >= UART_rx_buffer_process_ind){
 1209              		.loc 1 329 0
 1210 0104 0F4A     		ldr	r2, .L94+16
 1211 0106 5379     		ldrb	r3, [r2, #5]
 1212 0108 013B     		sub	r3, r3, #1
 1213 010a 907A     		ldrb	r0, [r2, #10]
 1214 010c 8342     		cmp	r3, r0
 1215 010e A6DB     		blt	.L92
 1216              	.LBB12:
 330:main.c        ****             uart_rx_buffer_process(UART_rx_buffer_process_ind);
 1217              		.loc 1 330 0
 1218 0110 FFF7FEFF 		bl	uart_rx_buffer_process
 1219              	.LVL158:
 331:main.c        ****             char hex_echo[2];
 332:main.c        ****             sprintf(hex_echo, "%02X", UART_rx_buffer[UART_rx_buffer_process_ind]);
 1220              		.loc 1 332 0
 1221 0114 0B4C     		ldr	r4, .L94+16
 1222 0116 A37A     		ldrb	r3, [r4, #10]
 1223 0118 0F4A     		ldr	r2, .L94+36
 1224 011a D25C     		ldrb	r2, [r2, r3]
 1225 011c 01A8     		add	r0, sp, #4
 1226 011e 0F49     		ldr	r1, .L94+40
 1227 0120 FFF7FEFF 		bl	sprintf
 1228              	.LVL159:
 333:main.c        ****             UART_debug_UartPutString(hex_echo);
 1229              		.loc 1 333 0
 1230 0124 01A8     		add	r0, sp, #4
 1231 0126 FFF7FEFF 		bl	UART_debug_UartPutString
 1232              	.LVL160:
 334:main.c        ****             UART_rx_buffer_process_ind++;
 1233              		.loc 1 334 0
 1234 012a A37A     		ldrb	r3, [r4, #10]
 1235 012c 0133     		add	r3, r3, #1
 1236 012e A372     		strb	r3, [r4, #10]
 1237 0130 95E7     		b	.L92
 1238              	.L95:
 1239 0132 C046     		.align	2
 1240              	.L94:
 1241 0134 00000000 		.word	timer_interrupt
 1242 0138 00000000 		.word	uart_rx_interrupt
 1243 013c 00000000 		.word	SSVEP_intervals
ARM GAS  C:\Users\Feiyang\AppData\Local\Temp\ccVpylT7.s 			page 31


 1244 0140 00000000 		.word	.LANCHOR1
 1245 0144 00000000 		.word	.LANCHOR0
 1246 0148 88130000 		.word	5000
 1247 014c 00000000 		.word	tic
 1248 0150 00000000 		.word	SSVEP_next_toggle
 1249 0154 00000000 		.word	sweep_time
 1250 0158 00000000 		.word	UART_rx_buffer
 1251 015c 14000000 		.word	.LC32
 1252              	.LBE12:
 1253              		.cfi_endproc
 1254              	.LFE46:
 1255              		.size	main, .-main
 1256              		.global	mills_time_i
 1257              		.comm	mills_time,200,4
 1258              		.comm	toc,4,4
 1259              		.comm	tic,4,4
 1260              		.global	sweep_i
 1261              		.comm	sweep_time,200,4
 1262              		.global	UART_rx_type
 1263              		.global	UART_rx_last_byte
 1264              		.global	UART_rx_buffer_process_ind_reset_flag
 1265              		.global	UART_rx_buffer_process_ind
 1266              		.global	UART_rx_buffer_ind
 1267              		.comm	UART_rx_buffer,64,4
 1268              		.comm	SSVEP_intervals_next,64,4
 1269              		.comm	SSVEP_states,64,4
 1270              		.comm	SSVEP_intervals,64,4
 1271              		.comm	SSVEP_next_toggle,256,4
 1272              		.global	operating_mode
 1273              		.global	mills
 1274              		.data
 1275              		.set	.LANCHOR1,. + 0
 1276              		.type	operating_mode, %object
 1277              		.size	operating_mode, 1
 1278              	operating_mode:
 1279 0000 01       		.byte	1
 1280              		.section	.rodata.str1.4,"aMS",%progbits,1
 1281              		.align	2
 1282              	.LC4:
 1283 0000 72782062 		.ascii	"rx buffer full\012\015\000"
 1283      75666665 
 1283      72206675 
 1283      6C6C0A0D 
 1283      00
 1284 0011 000000   		.space	3
 1285              	.LC32:
 1286 0014 25303258 		.ascii	"%02X\000"
 1286      00
 1287 0019 000000   		.bss
 1288              		.align	2
 1289              		.set	.LANCHOR0,. + 0
 1290              		.type	mills, %object
 1291              		.size	mills, 4
 1292              	mills:
 1293 0000 00000000 		.space	4
 1294              		.type	mills_time_i, %object
 1295              		.size	mills_time_i, 1
ARM GAS  C:\Users\Feiyang\AppData\Local\Temp\ccVpylT7.s 			page 32


 1296              	mills_time_i:
 1297 0004 00       		.space	1
 1298              		.type	UART_rx_buffer_ind, %object
 1299              		.size	UART_rx_buffer_ind, 1
 1300              	UART_rx_buffer_ind:
 1301 0005 00       		.space	1
 1302              		.type	UART_rx_buffer_process_ind_reset_flag, %object
 1303              		.size	UART_rx_buffer_process_ind_reset_flag, 1
 1304              	UART_rx_buffer_process_ind_reset_flag:
 1305 0006 00       		.space	1
 1306              		.type	UART_rx_last_byte, %object
 1307              		.size	UART_rx_last_byte, 1
 1308              	UART_rx_last_byte:
 1309 0007 00       		.space	1
 1310              		.type	UART_rx_type, %object
 1311              		.size	UART_rx_type, 1
 1312              	UART_rx_type:
 1313 0008 00       		.space	1
 1314              		.type	sweep_i, %object
 1315              		.size	sweep_i, 1
 1316              	sweep_i:
 1317 0009 00       		.space	1
 1318              		.type	UART_rx_buffer_process_ind, %object
 1319              		.size	UART_rx_buffer_process_ind, 1
 1320              	UART_rx_buffer_process_ind:
 1321 000a 00       		.space	1
 1322 000b 00       		.text
 1323              	.Letext0:
 1324              		.file 2 "Generated_Source\\PSoC4/cytypes.h"
 1325              		.file 3 "Generated_Source\\PSoC4/Timer_2.h"
 1326              		.file 4 "Generated_Source\\PSoC4/Timer_ms.h"
 1327              		.file 5 "Generated_Source\\PSoC4/Pin_1.h"
 1328              		.file 6 "Generated_Source\\PSoC4/Pin_2.h"
 1329              		.file 7 "Generated_Source\\PSoC4/Pin_3.h"
 1330              		.file 8 "Generated_Source\\PSoC4/Pin_4.h"
 1331              		.file 9 "Generated_Source\\PSoC4/Pin_5.h"
 1332              		.file 10 "Generated_Source\\PSoC4/Pin_6.h"
 1333              		.file 11 "Generated_Source\\PSoC4/Pin_7.h"
 1334              		.file 12 "Generated_Source\\PSoC4/Pin_8.h"
 1335              		.file 13 "Generated_Source\\PSoC4/Pin_9.h"
 1336              		.file 14 "Generated_Source\\PSoC4/Pin_10.h"
 1337              		.file 15 "Generated_Source\\PSoC4/Pin_11.h"
 1338              		.file 16 "Generated_Source\\PSoC4/Pin_12.h"
 1339              		.file 17 "Generated_Source\\PSoC4/Pin_13.h"
 1340              		.file 18 "Generated_Source\\PSoC4/Pin_14.h"
 1341              		.file 19 "Generated_Source\\PSoC4/Pin_15.h"
 1342              		.file 20 "Generated_Source\\PSoC4/Pin_16.h"
 1343              		.file 21 "Generated_Source\\PSoC4/UART_1_SPI_UART.h"
 1344              		.file 22 "<built-in>"
 1345              		.file 23 "Generated_Source\\PSoC4/UART_debug_SPI_UART.h"
 1346              		.file 24 "Generated_Source\\PSoC4/isr_ms.h"
 1347              		.file 25 "Generated_Source\\PSoC4/isr_uart_rx.h"
 1348              		.file 26 "Generated_Source\\PSoC4/UART_1.h"
 1349              		.file 27 "Generated_Source\\PSoC4/UART_debug.h"