ARM GAS  C:\Users\Feiyang\AppData\Local\Temp\cc3HajFB.s 			page 1


   1              		.cpu cortex-m0
   2              		.fpu softvfp
   3              		.eabi_attribute 20, 1
   4              		.eabi_attribute 21, 1
   5              		.eabi_attribute 23, 3
   6              		.eabi_attribute 24, 1
   7              		.eabi_attribute 25, 1
   8              		.eabi_attribute 26, 1
   9              		.eabi_attribute 30, 1
  10              		.eabi_attribute 34, 0
  11              		.eabi_attribute 18, 4
  12              		.code	16
  13              		.file	"CRC.c"
  14              		.text
  15              	.Ltext0:
  16              		.cfi_sections	.debug_frame
  17              		.section	.text.CRC_Enable,"ax",%progbits
  18              		.align	2
  19              		.global	CRC_Enable
  20              		.code	16
  21              		.thumb_func
  22              		.type	CRC_Enable, %function
  23              	CRC_Enable:
  24              	.LFB1:
  25              		.file 1 "Generated_Source\\PSoC4\\CRC.c"
   1:Generated_Source\PSoC4/CRC.c **** /*******************************************************************************
   2:Generated_Source\PSoC4/CRC.c **** * File Name: CRC.c
   3:Generated_Source\PSoC4/CRC.c **** * Version 2.40
   4:Generated_Source\PSoC4/CRC.c **** *
   5:Generated_Source\PSoC4/CRC.c **** * Description:
   6:Generated_Source\PSoC4/CRC.c **** *  This file provides the source code to the API for the CRC component
   7:Generated_Source\PSoC4/CRC.c **** *
   8:Generated_Source\PSoC4/CRC.c **** * Note:
   9:Generated_Source\PSoC4/CRC.c **** *  None
  10:Generated_Source\PSoC4/CRC.c **** *
  11:Generated_Source\PSoC4/CRC.c **** ********************************************************************************
  12:Generated_Source\PSoC4/CRC.c **** * Copyright 2008-2013, Cypress Semiconductor Corporation.  All rights reserved.
  13:Generated_Source\PSoC4/CRC.c **** * You may use this file only in accordance with the license, terms, conditions,
  14:Generated_Source\PSoC4/CRC.c **** * disclaimers, and limitations in the end user license agreement accompanying
  15:Generated_Source\PSoC4/CRC.c **** * the software package with which this file was provided.
  16:Generated_Source\PSoC4/CRC.c **** *******************************************************************************/
  17:Generated_Source\PSoC4/CRC.c **** 
  18:Generated_Source\PSoC4/CRC.c **** #include "CRC.h"
  19:Generated_Source\PSoC4/CRC.c **** 
  20:Generated_Source\PSoC4/CRC.c **** uint8 CRC_initVar = 0u;
  21:Generated_Source\PSoC4/CRC.c **** 
  22:Generated_Source\PSoC4/CRC.c **** CRC_BACKUP_STRUCT CRC_backup =
  23:Generated_Source\PSoC4/CRC.c **** {
  24:Generated_Source\PSoC4/CRC.c ****     0x00u, /* enableState; */
  25:Generated_Source\PSoC4/CRC.c **** 
  26:Generated_Source\PSoC4/CRC.c ****     /* Save D0 and D1 registers are none-retention for Panther ES1 */
  27:Generated_Source\PSoC4/CRC.c ****     #if (CY_UDB_V0)
  28:Generated_Source\PSoC4/CRC.c **** 
  29:Generated_Source\PSoC4/CRC.c ****         #if(CRC_CRC_SIZE <= 32u)
  30:Generated_Source\PSoC4/CRC.c ****             CRC_DEFAULT_POLYNOM, /* polynomial; */
  31:Generated_Source\PSoC4/CRC.c **** 
  32:Generated_Source\PSoC4/CRC.c ****         #else
ARM GAS  C:\Users\Feiyang\AppData\Local\Temp\cc3HajFB.s 			page 2


  33:Generated_Source\PSoC4/CRC.c ****             CRC_DEFAULT_POLYNOM_UPPER, /* polynomialUpper; */
  34:Generated_Source\PSoC4/CRC.c ****             CRC_DEFAULT_POLYNOM_LOWER,  /* polynomialLower; */
  35:Generated_Source\PSoC4/CRC.c **** 
  36:Generated_Source\PSoC4/CRC.c ****         #endif  /* End (CRC_CRC_SIZE <= 32u) */
  37:Generated_Source\PSoC4/CRC.c **** 
  38:Generated_Source\PSoC4/CRC.c ****     #endif  /* End (CY_UDB_V0) */
  39:Generated_Source\PSoC4/CRC.c **** };
  40:Generated_Source\PSoC4/CRC.c **** 
  41:Generated_Source\PSoC4/CRC.c **** 
  42:Generated_Source\PSoC4/CRC.c **** /*******************************************************************************
  43:Generated_Source\PSoC4/CRC.c **** * Function Name: CRC_Init
  44:Generated_Source\PSoC4/CRC.c **** ********************************************************************************
  45:Generated_Source\PSoC4/CRC.c **** *
  46:Generated_Source\PSoC4/CRC.c **** * Summary:
  47:Generated_Source\PSoC4/CRC.c **** *  Initializes seed and polynomial registers with initial values.
  48:Generated_Source\PSoC4/CRC.c **** *
  49:Generated_Source\PSoC4/CRC.c **** * Parameters:
  50:Generated_Source\PSoC4/CRC.c **** *  void
  51:Generated_Source\PSoC4/CRC.c **** *
  52:Generated_Source\PSoC4/CRC.c **** * Return:
  53:Generated_Source\PSoC4/CRC.c **** *  void
  54:Generated_Source\PSoC4/CRC.c **** *
  55:Generated_Source\PSoC4/CRC.c **** *******************************************************************************/
  56:Generated_Source\PSoC4/CRC.c **** void CRC_Init(void) 
  57:Generated_Source\PSoC4/CRC.c **** {
  58:Generated_Source\PSoC4/CRC.c ****     /* Writes seed value and ponynom value provided for customizer */
  59:Generated_Source\PSoC4/CRC.c ****     #if (CRC_CRC_SIZE <= 32u)
  60:Generated_Source\PSoC4/CRC.c ****         CRC_WritePolynomial(CRC_DEFAULT_POLYNOM);
  61:Generated_Source\PSoC4/CRC.c ****         CRC_WriteSeed(CRC_DEFAULT_SEED);
  62:Generated_Source\PSoC4/CRC.c ****         CRC_ResetSeedInit(CRC_DEFAULT_SEED);
  63:Generated_Source\PSoC4/CRC.c **** 
  64:Generated_Source\PSoC4/CRC.c ****     #else
  65:Generated_Source\PSoC4/CRC.c ****         CRC_WritePolynomialUpper(CRC_DEFAULT_POLYNOM_UPPER);
  66:Generated_Source\PSoC4/CRC.c ****         CRC_WritePolynomialLower(CRC_DEFAULT_POLYNOM_LOWER);
  67:Generated_Source\PSoC4/CRC.c ****         CRC_WriteSeedUpper(CRC_DEFAULT_SEED_UPPER);
  68:Generated_Source\PSoC4/CRC.c ****         CRC_WriteSeedLower(CRC_DEFAULT_SEED_LOWER);
  69:Generated_Source\PSoC4/CRC.c ****         CRC_ResetSeedInitUpper(CRC_DEFAULT_SEED_UPPER);
  70:Generated_Source\PSoC4/CRC.c ****         CRC_ResetSeedInitLower(CRC_DEFAULT_SEED_LOWER);
  71:Generated_Source\PSoC4/CRC.c **** 
  72:Generated_Source\PSoC4/CRC.c ****     #endif  /* End (CRC_CRC_SIZE <= 32u) */
  73:Generated_Source\PSoC4/CRC.c **** }
  74:Generated_Source\PSoC4/CRC.c **** 
  75:Generated_Source\PSoC4/CRC.c **** 
  76:Generated_Source\PSoC4/CRC.c **** /*******************************************************************************
  77:Generated_Source\PSoC4/CRC.c **** * Function Name: CRC_Enable
  78:Generated_Source\PSoC4/CRC.c **** ********************************************************************************
  79:Generated_Source\PSoC4/CRC.c **** *
  80:Generated_Source\PSoC4/CRC.c **** * Summary:
  81:Generated_Source\PSoC4/CRC.c **** *  Starts CRC computation on rising edge of input clock.
  82:Generated_Source\PSoC4/CRC.c **** *
  83:Generated_Source\PSoC4/CRC.c **** * Parameters:
  84:Generated_Source\PSoC4/CRC.c **** *  void
  85:Generated_Source\PSoC4/CRC.c **** *
  86:Generated_Source\PSoC4/CRC.c **** * Return:
  87:Generated_Source\PSoC4/CRC.c **** *  void
  88:Generated_Source\PSoC4/CRC.c **** *
  89:Generated_Source\PSoC4/CRC.c **** *******************************************************************************/
ARM GAS  C:\Users\Feiyang\AppData\Local\Temp\cc3HajFB.s 			page 3


  90:Generated_Source\PSoC4/CRC.c **** void CRC_Enable(void) 
  91:Generated_Source\PSoC4/CRC.c **** {
  26              		.loc 1 91 0
  27              		.cfi_startproc
  92:Generated_Source\PSoC4/CRC.c ****     CRC_CONTROL_REG |= CRC_CTRL_ENABLE;
  28              		.loc 1 92 0
  29 0000 024A     		ldr	r2, .L2
  30 0002 1178     		ldrb	r1, [r2]
  31 0004 0123     		mov	r3, #1
  32 0006 0B43     		orr	r3, r1
  33 0008 1370     		strb	r3, [r2]
  93:Generated_Source\PSoC4/CRC.c **** }
  34              		.loc 1 93 0
  35              		@ sp needed
  36 000a 7047     		bx	lr
  37              	.L3:
  38              		.align	2
  39              	.L2:
  40 000c 73000F40 		.word	1074724979
  41              		.cfi_endproc
  42              	.LFE1:
  43              		.size	CRC_Enable, .-CRC_Enable
  44              		.section	.text.CRC_Stop,"ax",%progbits
  45              		.align	2
  46              		.global	CRC_Stop
  47              		.code	16
  48              		.thumb_func
  49              		.type	CRC_Stop, %function
  50              	CRC_Stop:
  51              	.LFB3:
  94:Generated_Source\PSoC4/CRC.c **** 
  95:Generated_Source\PSoC4/CRC.c **** 
  96:Generated_Source\PSoC4/CRC.c **** /*******************************************************************************
  97:Generated_Source\PSoC4/CRC.c **** * Function Name: CRC_Start
  98:Generated_Source\PSoC4/CRC.c **** ********************************************************************************
  99:Generated_Source\PSoC4/CRC.c **** *
 100:Generated_Source\PSoC4/CRC.c **** * Summary:
 101:Generated_Source\PSoC4/CRC.c **** *  Initializes seed and polynomial registers with initial values. Computation
 102:Generated_Source\PSoC4/CRC.c **** *  of CRC starts on rising edge of input clock.
 103:Generated_Source\PSoC4/CRC.c **** *
 104:Generated_Source\PSoC4/CRC.c **** * Parameters:
 105:Generated_Source\PSoC4/CRC.c **** *  void
 106:Generated_Source\PSoC4/CRC.c **** *
 107:Generated_Source\PSoC4/CRC.c **** * Return:
 108:Generated_Source\PSoC4/CRC.c **** *  void
 109:Generated_Source\PSoC4/CRC.c **** *
 110:Generated_Source\PSoC4/CRC.c **** * Global variables:
 111:Generated_Source\PSoC4/CRC.c **** *  CRC_initVar: global variable is used to indicate initial
 112:Generated_Source\PSoC4/CRC.c **** *  configuration of this component.  The variable is initialized to zero and set
 113:Generated_Source\PSoC4/CRC.c **** *  to 1 the first time CRC_Start() is called. This allows
 114:Generated_Source\PSoC4/CRC.c **** *  enable/disable component without re-initialization in all subsequent calls
 115:Generated_Source\PSoC4/CRC.c **** *  to the CRC_Start() routine.
 116:Generated_Source\PSoC4/CRC.c **** *
 117:Generated_Source\PSoC4/CRC.c **** *******************************************************************************/
 118:Generated_Source\PSoC4/CRC.c **** void CRC_Start(void) 
 119:Generated_Source\PSoC4/CRC.c **** {
 120:Generated_Source\PSoC4/CRC.c ****     /* Writes seed value and ponynom value provided from customizer */
ARM GAS  C:\Users\Feiyang\AppData\Local\Temp\cc3HajFB.s 			page 4


 121:Generated_Source\PSoC4/CRC.c ****     if (CRC_initVar == 0u)
 122:Generated_Source\PSoC4/CRC.c ****     {
 123:Generated_Source\PSoC4/CRC.c ****         CRC_Init();
 124:Generated_Source\PSoC4/CRC.c ****         CRC_initVar = 1u;
 125:Generated_Source\PSoC4/CRC.c ****     }
 126:Generated_Source\PSoC4/CRC.c **** 
 127:Generated_Source\PSoC4/CRC.c ****     CRC_Enable();
 128:Generated_Source\PSoC4/CRC.c **** }
 129:Generated_Source\PSoC4/CRC.c **** 
 130:Generated_Source\PSoC4/CRC.c **** 
 131:Generated_Source\PSoC4/CRC.c **** /*******************************************************************************
 132:Generated_Source\PSoC4/CRC.c **** * Function Name: CRC_Stop
 133:Generated_Source\PSoC4/CRC.c **** ********************************************************************************
 134:Generated_Source\PSoC4/CRC.c **** *
 135:Generated_Source\PSoC4/CRC.c **** * Summary:
 136:Generated_Source\PSoC4/CRC.c **** *  Stops CRC computation.
 137:Generated_Source\PSoC4/CRC.c **** *
 138:Generated_Source\PSoC4/CRC.c **** * Parameters:
 139:Generated_Source\PSoC4/CRC.c **** *  void
 140:Generated_Source\PSoC4/CRC.c **** *
 141:Generated_Source\PSoC4/CRC.c **** * Return:
 142:Generated_Source\PSoC4/CRC.c **** *  void
 143:Generated_Source\PSoC4/CRC.c **** *
 144:Generated_Source\PSoC4/CRC.c **** * Reentrant:
 145:Generated_Source\PSoC4/CRC.c **** *  No
 146:Generated_Source\PSoC4/CRC.c **** *
 147:Generated_Source\PSoC4/CRC.c **** *******************************************************************************/
 148:Generated_Source\PSoC4/CRC.c **** void CRC_Stop(void) 
 149:Generated_Source\PSoC4/CRC.c **** {
  52              		.loc 1 149 0
  53              		.cfi_startproc
 150:Generated_Source\PSoC4/CRC.c ****     CRC_CONTROL_REG &= ((uint8)~CRC_CTRL_ENABLE);
  54              		.loc 1 150 0
  55 0000 024A     		ldr	r2, .L5
  56 0002 1378     		ldrb	r3, [r2]
  57 0004 0121     		mov	r1, #1
  58 0006 8B43     		bic	r3, r1
  59 0008 1370     		strb	r3, [r2]
 151:Generated_Source\PSoC4/CRC.c **** }
  60              		.loc 1 151 0
  61              		@ sp needed
  62 000a 7047     		bx	lr
  63              	.L6:
  64              		.align	2
  65              	.L5:
  66 000c 73000F40 		.word	1074724979
  67              		.cfi_endproc
  68              	.LFE3:
  69              		.size	CRC_Stop, .-CRC_Stop
  70              		.section	.text.CRC_ResetSeedInit,"ax",%progbits
  71              		.align	2
  72              		.global	CRC_ResetSeedInit
  73              		.code	16
  74              		.thumb_func
  75              		.type	CRC_ResetSeedInit, %function
  76              	CRC_ResetSeedInit:
  77              	.LFB4:
ARM GAS  C:\Users\Feiyang\AppData\Local\Temp\cc3HajFB.s 			page 5


 152:Generated_Source\PSoC4/CRC.c **** 
 153:Generated_Source\PSoC4/CRC.c **** 
 154:Generated_Source\PSoC4/CRC.c **** #if (CRC_CRC_SIZE <= 32u) /* 8-32 bits CRC */
 155:Generated_Source\PSoC4/CRC.c ****     /*******************************************************************************
 156:Generated_Source\PSoC4/CRC.c ****     * FUNCTION NAME: CRC_ResetSeedInit
 157:Generated_Source\PSoC4/CRC.c ****     ********************************************************************************
 158:Generated_Source\PSoC4/CRC.c ****     *
 159:Generated_Source\PSoC4/CRC.c ****     * Summary:
 160:Generated_Source\PSoC4/CRC.c ****     *  Increments the CRC by one when API single step mode is used.
 161:Generated_Source\PSoC4/CRC.c ****     *
 162:Generated_Source\PSoC4/CRC.c ****     * Parameters:
 163:Generated_Source\PSoC4/CRC.c ****     *  void
 164:Generated_Source\PSoC4/CRC.c ****     *
 165:Generated_Source\PSoC4/CRC.c ****     * Return:
 166:Generated_Source\PSoC4/CRC.c ****     *  void
 167:Generated_Source\PSoC4/CRC.c ****     *
 168:Generated_Source\PSoC4/CRC.c ****     *******************************************************************************/
 169:Generated_Source\PSoC4/CRC.c ****     void CRC_ResetSeedInit(uint16 seed)
 170:Generated_Source\PSoC4/CRC.c ****                                         
 171:Generated_Source\PSoC4/CRC.c ****     {
  78              		.loc 1 171 0
  79              		.cfi_startproc
  80              	.LVL0:
  81 0000 10B5     		push	{r4, lr}
  82              		.cfi_def_cfa_offset 8
  83              		.cfi_offset 4, -8
  84              		.cfi_offset 14, -4
  85 0002 041C     		mov	r4, r0
 172:Generated_Source\PSoC4/CRC.c ****          uint8 enableInterrupts;
 173:Generated_Source\PSoC4/CRC.c **** 
 174:Generated_Source\PSoC4/CRC.c ****         /* Mask the Seed to cut unused bits */
 175:Generated_Source\PSoC4/CRC.c ****         #if((0u != (CRC_CRC_SIZE % 8u)) || (CRC_CRC_SIZE == 24u))
 176:Generated_Source\PSoC4/CRC.c ****             seed &= CRC_MASK;
 177:Generated_Source\PSoC4/CRC.c ****         #endif /* ((0u != (CRC_CRC_SIZE % 8u)) || (CRC_CRC_SIZE == 24u)) */
 178:Generated_Source\PSoC4/CRC.c **** 
 179:Generated_Source\PSoC4/CRC.c ****         /* Change AuxControl reg, need to be safety */
 180:Generated_Source\PSoC4/CRC.c ****         enableInterrupts = CyEnterCriticalSection();
  86              		.loc 1 180 0
  87 0004 FFF7FEFF 		bl	CyEnterCriticalSection
  88              	.LVL1:
 181:Generated_Source\PSoC4/CRC.c **** 
 182:Generated_Source\PSoC4/CRC.c ****         #if (CRC_TIME_MULTIPLEXING_ENABLE)
 183:Generated_Source\PSoC4/CRC.c ****             /* Set FIFOs to single register */
 184:Generated_Source\PSoC4/CRC.c ****             CRC_AUX_CONTROL_A_REG |= CRC_AUXCTRL_FIFO_SINGLE_REG;
 185:Generated_Source\PSoC4/CRC.c **** 
 186:Generated_Source\PSoC4/CRC.c ****             #if(CRC_CRC_SIZE > 16u)       /* 17-32 bits CRC */
 187:Generated_Source\PSoC4/CRC.c ****                 CRC_AUX_CONTROL_B_REG |= CRC_AUXCTRL_FIFO_SINGLE_REG;
 188:Generated_Source\PSoC4/CRC.c ****             #endif  /* End (CRC_CRC_SIZE <= 8u) */
 189:Generated_Source\PSoC4/CRC.c **** 
 190:Generated_Source\PSoC4/CRC.c ****             /* AuxControl reg settings are done */
 191:Generated_Source\PSoC4/CRC.c ****             CyExitCriticalSection(enableInterrupts);
 192:Generated_Source\PSoC4/CRC.c **** 
 193:Generated_Source\PSoC4/CRC.c ****             /* Write Seed COPY */
 194:Generated_Source\PSoC4/CRC.c ****             #if (CRC_CRC_SIZE <= 16u)          /* 16 bits CRC */
 195:Generated_Source\PSoC4/CRC.c ****                 CRC_SEED_COPY_A__A1_REG = HI8(seed);
 196:Generated_Source\PSoC4/CRC.c ****                 CRC_SEED_COPY_A__A0_REG = LO8(seed);
 197:Generated_Source\PSoC4/CRC.c **** 
ARM GAS  C:\Users\Feiyang\AppData\Local\Temp\cc3HajFB.s 			page 6


 198:Generated_Source\PSoC4/CRC.c ****             #elif (CRC_CRC_SIZE <= 24u)        /* 24 bits CRC */
 199:Generated_Source\PSoC4/CRC.c ****                 CRC_SEED_COPY_B__A1_REG = LO8(HI16(seed));
 200:Generated_Source\PSoC4/CRC.c ****                 CRC_SEED_COPY_B__A0_REG = HI8(seed);
 201:Generated_Source\PSoC4/CRC.c ****                 CRC_SEED_COPY_A__A0_REG = LO8(seed);
 202:Generated_Source\PSoC4/CRC.c **** 
 203:Generated_Source\PSoC4/CRC.c ****             #else                                           /* 32 bits CRC */
 204:Generated_Source\PSoC4/CRC.c ****                 CRC_SEED_COPY_B__A1_REG = HI8(HI16(seed));
 205:Generated_Source\PSoC4/CRC.c ****                 CRC_SEED_COPY_A__A1_REG = LO8(HI16(seed));
 206:Generated_Source\PSoC4/CRC.c ****                 CRC_SEED_COPY_B__A0_REG = HI8(seed);
 207:Generated_Source\PSoC4/CRC.c ****                 CRC_SEED_COPY_A__A0_REG = LO8(seed);
 208:Generated_Source\PSoC4/CRC.c ****             #endif  /* End (CRC_CRC_SIZE <= 32u) */
 209:Generated_Source\PSoC4/CRC.c **** 
 210:Generated_Source\PSoC4/CRC.c ****         #else
 211:Generated_Source\PSoC4/CRC.c ****             /* Set FIFOs to single register */
 212:Generated_Source\PSoC4/CRC.c ****             #if (CRC_CRC_SIZE <= 8u)         /* 8 bits CRC */
 213:Generated_Source\PSoC4/CRC.c ****                 CRC_AUX_CONTROL_A_REG |= CRC_AUXCTRL_FIFO_SINGLE_REG;
 214:Generated_Source\PSoC4/CRC.c **** 
 215:Generated_Source\PSoC4/CRC.c ****             #elif (CRC_CRC_SIZE <= 16u)      /* 16 bits CRC */
 216:Generated_Source\PSoC4/CRC.c ****                 CRC_AUX_CONTROL_A_REG  |= CRC_AUXCTRL_FIFO_SINGLE_REG;
  89              		.loc 1 216 0
  90 0008 0749     		ldr	r1, .L8
  91 000a 0A78     		ldrb	r2, [r1]
  92 000c 0323     		mov	r3, #3
  93 000e 1A43     		orr	r2, r3
  94 0010 D2B2     		uxtb	r2, r2
  95 0012 0A70     		strb	r2, [r1]
 217:Generated_Source\PSoC4/CRC.c ****                 CRC_AUX_CONTROL_B_REG  |= CRC_AUXCTRL_FIFO_SINGLE_REG;
  96              		.loc 1 217 0
  97 0014 054A     		ldr	r2, .L8+4
  98 0016 1178     		ldrb	r1, [r2]
  99 0018 0B43     		orr	r3, r1
 100 001a DBB2     		uxtb	r3, r3
 101 001c 1370     		strb	r3, [r2]
 218:Generated_Source\PSoC4/CRC.c **** 
 219:Generated_Source\PSoC4/CRC.c ****             #elif (CRC_CRC_SIZE <= 24u)      /* 24 bits CRC */
 220:Generated_Source\PSoC4/CRC.c ****                 CRC_AUX_CONTROL_A_REG  |= CRC_AUXCTRL_FIFO_SINGLE_REG;
 221:Generated_Source\PSoC4/CRC.c ****                 CRC_AUX_CONTROL_B_REG  |= CRC_AUXCTRL_FIFO_SINGLE_REG;
 222:Generated_Source\PSoC4/CRC.c ****                 CRC_AUX_CONTROL_C_REG  |= CRC_AUXCTRL_FIFO_SINGLE_REG;
 223:Generated_Source\PSoC4/CRC.c **** 
 224:Generated_Source\PSoC4/CRC.c ****             #elif (CRC_CRC_SIZE <= 32u)      /* 32 bits CRC */
 225:Generated_Source\PSoC4/CRC.c ****                 CRC_AUX_CONTROL_A_REG  |= CRC_AUXCTRL_FIFO_SINGLE_REG;
 226:Generated_Source\PSoC4/CRC.c ****                 CRC_AUX_CONTROL_B_REG  |= CRC_AUXCTRL_FIFO_SINGLE_REG;
 227:Generated_Source\PSoC4/CRC.c ****                 CRC_AUX_CONTROL_C_REG  |= CRC_AUXCTRL_FIFO_SINGLE_REG;
 228:Generated_Source\PSoC4/CRC.c ****                 CRC_AUX_CONTROL_D_REG  |= CRC_AUXCTRL_FIFO_SINGLE_REG;
 229:Generated_Source\PSoC4/CRC.c **** 
 230:Generated_Source\PSoC4/CRC.c ****             #endif  /* End (CRC_CRC_SIZE <= 8u) */
 231:Generated_Source\PSoC4/CRC.c **** 
 232:Generated_Source\PSoC4/CRC.c ****             /* AuxControl reg setting are done */
 233:Generated_Source\PSoC4/CRC.c ****             CyExitCriticalSection(enableInterrupts);
 102              		.loc 1 233 0
 103 001e FFF7FEFF 		bl	CyExitCriticalSection
 104              	.LVL2:
 234:Generated_Source\PSoC4/CRC.c **** 
 235:Generated_Source\PSoC4/CRC.c ****             /* Write Seed COPY */
 236:Generated_Source\PSoC4/CRC.c ****             CY_SET_REG16(CRC_SEED_COPY_PTR, seed);
 105              		.loc 1 236 0
 106 0022 034B     		ldr	r3, .L8+8
ARM GAS  C:\Users\Feiyang\AppData\Local\Temp\cc3HajFB.s 			page 7


 107 0024 1C80     		strh	r4, [r3]
 237:Generated_Source\PSoC4/CRC.c ****         #endif  /* End (CRC_TIME_MULTIPLEXING_ENABLE) */
 238:Generated_Source\PSoC4/CRC.c ****     }
 108              		.loc 1 238 0
 109              		@ sp needed
 110 0026 10BD     		pop	{r4, pc}
 111              	.L9:
 112              		.align	2
 113              	.L8:
 114 0028 92000F40 		.word	1074725010
 115 002c 93000F40 		.word	1074725011
 116 0030 84100F40 		.word	1074729092
 117              		.cfi_endproc
 118              	.LFE4:
 119              		.size	CRC_ResetSeedInit, .-CRC_ResetSeedInit
 120              		.section	.text.CRC_ReadCRC,"ax",%progbits
 121              		.align	2
 122              		.global	CRC_ReadCRC
 123              		.code	16
 124              		.thumb_func
 125              		.type	CRC_ReadCRC, %function
 126              	CRC_ReadCRC:
 127              	.LFB5:
 239:Generated_Source\PSoC4/CRC.c **** 
 240:Generated_Source\PSoC4/CRC.c **** #else
 241:Generated_Source\PSoC4/CRC.c **** 
 242:Generated_Source\PSoC4/CRC.c ****     /*******************************************************************************
 243:Generated_Source\PSoC4/CRC.c ****     * FUNCTION NAME: CRC_ResetSeedInitUpper
 244:Generated_Source\PSoC4/CRC.c ****     ********************************************************************************
 245:Generated_Source\PSoC4/CRC.c ****     *
 246:Generated_Source\PSoC4/CRC.c ****     * Summary:
 247:Generated_Source\PSoC4/CRC.c ****     *  Increments the CRC by one when API single step mode is used.
 248:Generated_Source\PSoC4/CRC.c ****     *
 249:Generated_Source\PSoC4/CRC.c ****     * Parameters:
 250:Generated_Source\PSoC4/CRC.c ****     *  void
 251:Generated_Source\PSoC4/CRC.c ****     *
 252:Generated_Source\PSoC4/CRC.c ****     * Return:
 253:Generated_Source\PSoC4/CRC.c ****     *  void
 254:Generated_Source\PSoC4/CRC.c ****     *
 255:Generated_Source\PSoC4/CRC.c ****     *******************************************************************************/
 256:Generated_Source\PSoC4/CRC.c ****     void CRC_ResetSeedInitUpper(uint32 seed) 
 257:Generated_Source\PSoC4/CRC.c ****     {
 258:Generated_Source\PSoC4/CRC.c ****         uint8 enableInterrupts;
 259:Generated_Source\PSoC4/CRC.c **** 
 260:Generated_Source\PSoC4/CRC.c ****         /* Mask the Seed Upper half to cut unused bits in case, when CRC size is not byte-aligned o
 261:Generated_Source\PSoC4/CRC.c ****         #if((0u != (CRC_CRC_SIZE % 8u)) || (CRC_CRC_SIZE == 24u))
 262:Generated_Source\PSoC4/CRC.c ****             seed &= CRC_MASK;
 263:Generated_Source\PSoC4/CRC.c ****         #endif /* ((0u != (CRC_CRC_SIZE % 8u)) || (CRC_CRC_SIZE == 24u)) */
 264:Generated_Source\PSoC4/CRC.c **** 
 265:Generated_Source\PSoC4/CRC.c ****         /* Change AuxControl reg, need to be safety */
 266:Generated_Source\PSoC4/CRC.c ****         enableInterrupts = CyEnterCriticalSection();
 267:Generated_Source\PSoC4/CRC.c **** 
 268:Generated_Source\PSoC4/CRC.c ****         /* Set FIFOs to single register */
 269:Generated_Source\PSoC4/CRC.c ****         CRC_AUX_CONTROL_A_REG |= CRC_AUXCTRL_FIFO_SINGLE_REG;
 270:Generated_Source\PSoC4/CRC.c ****         CRC_AUX_CONTROL_B_REG |= CRC_AUXCTRL_FIFO_SINGLE_REG;
 271:Generated_Source\PSoC4/CRC.c ****         CRC_AUX_CONTROL_C_REG |= CRC_AUXCTRL_FIFO_SINGLE_REG;
 272:Generated_Source\PSoC4/CRC.c **** 
ARM GAS  C:\Users\Feiyang\AppData\Local\Temp\cc3HajFB.s 			page 8


 273:Generated_Source\PSoC4/CRC.c ****         #if (CRC_CRC_SIZE > 48u)               /* 49-64 bits CRC */
 274:Generated_Source\PSoC4/CRC.c ****             CRC_AUX_CONTROL_D_REG |= CRC_AUXCTRL_FIFO_SINGLE_REG;
 275:Generated_Source\PSoC4/CRC.c ****         #endif  /* End (CRC_CRC_SIZE <= 8u) */
 276:Generated_Source\PSoC4/CRC.c **** 
 277:Generated_Source\PSoC4/CRC.c ****         /* AuxControl reg settings are done */
 278:Generated_Source\PSoC4/CRC.c ****         CyExitCriticalSection(enableInterrupts);
 279:Generated_Source\PSoC4/CRC.c **** 
 280:Generated_Source\PSoC4/CRC.c ****         /* Write Seed Upper COPY */
 281:Generated_Source\PSoC4/CRC.c ****         #if (CRC_CRC_SIZE <= 40u)          /* 40 bits CRC */
 282:Generated_Source\PSoC4/CRC.c ****             CRC_SEED_UPPER_COPY_C__A1_REG = LO8(seed);
 283:Generated_Source\PSoC4/CRC.c **** 
 284:Generated_Source\PSoC4/CRC.c ****         #elif (CRC_CRC_SIZE <= 48u)        /* 48 bits CRC */
 285:Generated_Source\PSoC4/CRC.c ****             CRC_SEED_UPPER_COPY_C__A1_REG = HI8(seed);
 286:Generated_Source\PSoC4/CRC.c ****             CRC_SEED_UPPER_COPY_B__A1_REG = LO8(seed);
 287:Generated_Source\PSoC4/CRC.c **** 
 288:Generated_Source\PSoC4/CRC.c ****         #elif (CRC_CRC_SIZE <= 56u)        /* 56 bits CRC */
 289:Generated_Source\PSoC4/CRC.c ****             CRC_SEED_UPPER_COPY_D__A1_REG = LO8(HI16(seed));
 290:Generated_Source\PSoC4/CRC.c ****             CRC_SEED_UPPER_COPY_C__A1_REG = HI8(seed);
 291:Generated_Source\PSoC4/CRC.c ****             CRC_SEED_UPPER_COPY_B__A1_REG = HI8(seed);
 292:Generated_Source\PSoC4/CRC.c **** 
 293:Generated_Source\PSoC4/CRC.c ****         #else                                           /* 64 bits CRC */
 294:Generated_Source\PSoC4/CRC.c ****             CRC_SEED_UPPER_COPY_D__A1_REG = HI8(HI16(seed));
 295:Generated_Source\PSoC4/CRC.c ****             CRC_SEED_UPPER_COPY_C__A1_REG = LO8(HI16(seed));
 296:Generated_Source\PSoC4/CRC.c ****             CRC_SEED_UPPER_COPY_B__A1_REG = HI8(seed);
 297:Generated_Source\PSoC4/CRC.c ****             CRC_SEED_UPPER_COPY_A__A1_REG = LO8(seed);
 298:Generated_Source\PSoC4/CRC.c **** 
 299:Generated_Source\PSoC4/CRC.c ****         #endif  /* End (CRC_CRC_SIZE <= 32u) */
 300:Generated_Source\PSoC4/CRC.c ****     }
 301:Generated_Source\PSoC4/CRC.c **** 
 302:Generated_Source\PSoC4/CRC.c **** 
 303:Generated_Source\PSoC4/CRC.c ****     /*******************************************************************************
 304:Generated_Source\PSoC4/CRC.c ****     * FUNCTION NAME: CRC_ResetSeedInitLower
 305:Generated_Source\PSoC4/CRC.c ****     ********************************************************************************
 306:Generated_Source\PSoC4/CRC.c ****     *
 307:Generated_Source\PSoC4/CRC.c ****     * Summary:
 308:Generated_Source\PSoC4/CRC.c ****     *  Increments the CRC by one when API single step mode is used.
 309:Generated_Source\PSoC4/CRC.c ****     *
 310:Generated_Source\PSoC4/CRC.c ****     * Parameters:
 311:Generated_Source\PSoC4/CRC.c ****     *  void
 312:Generated_Source\PSoC4/CRC.c ****     *
 313:Generated_Source\PSoC4/CRC.c ****     * Return:
 314:Generated_Source\PSoC4/CRC.c ****     *  void
 315:Generated_Source\PSoC4/CRC.c ****     *
 316:Generated_Source\PSoC4/CRC.c ****     *******************************************************************************/
 317:Generated_Source\PSoC4/CRC.c ****     void CRC_ResetSeedInitLower(uint32 seed) 
 318:Generated_Source\PSoC4/CRC.c ****     {
 319:Generated_Source\PSoC4/CRC.c ****         /* Write Seed Lower COPY */
 320:Generated_Source\PSoC4/CRC.c ****         #if (CRC_CRC_SIZE <= 40u)          /* 40 bits CRC */
 321:Generated_Source\PSoC4/CRC.c ****             CRC_SEED_LOWER_COPY_B__A1_REG = HI8(HI16(seed));
 322:Generated_Source\PSoC4/CRC.c ****             CRC_SEED_LOWER_COPY_C__A0_REG = LO8(HI16(seed));
 323:Generated_Source\PSoC4/CRC.c ****             CRC_SEED_LOWER_COPY_B__A0_REG = HI8(seed);
 324:Generated_Source\PSoC4/CRC.c ****             CRC_SEED_LOWER_COPY_A__A0_REG = LO8(seed);
 325:Generated_Source\PSoC4/CRC.c **** 
 326:Generated_Source\PSoC4/CRC.c ****         #elif (CRC_CRC_SIZE <= 48u)        /* 48 bits CRC */
 327:Generated_Source\PSoC4/CRC.c ****             CRC_SEED_LOWER_COPY_A__A1_REG = HI8(HI16(seed));
 328:Generated_Source\PSoC4/CRC.c ****             CRC_SEED_LOWER_COPY_C__A0_REG = LO8(HI16(seed));
 329:Generated_Source\PSoC4/CRC.c ****             CRC_SEED_LOWER_COPY_B__A0_REG = HI8(seed);
ARM GAS  C:\Users\Feiyang\AppData\Local\Temp\cc3HajFB.s 			page 9


 330:Generated_Source\PSoC4/CRC.c ****             CRC_SEED_LOWER_COPY_A__A0_REG = LO8(seed);
 331:Generated_Source\PSoC4/CRC.c **** 
 332:Generated_Source\PSoC4/CRC.c ****         #else                                           /* 64 bits CRC */
 333:Generated_Source\PSoC4/CRC.c ****             CRC_SEED_LOWER_COPY_D__A0_REG = HI8(HI16(seed));
 334:Generated_Source\PSoC4/CRC.c ****             CRC_SEED_LOWER_COPY_C__A0_REG = LO8(HI16(seed));
 335:Generated_Source\PSoC4/CRC.c ****             CRC_SEED_LOWER_COPY_B__A0_REG = HI8(seed);
 336:Generated_Source\PSoC4/CRC.c ****             CRC_SEED_LOWER_COPY_A__A0_REG = LO8(seed);
 337:Generated_Source\PSoC4/CRC.c **** 
 338:Generated_Source\PSoC4/CRC.c ****         #endif  /* End (CRC_CRC_SIZE <= 32u) */
 339:Generated_Source\PSoC4/CRC.c ****     }
 340:Generated_Source\PSoC4/CRC.c **** #endif  /* End (CRC_CRC_SIZE <= 32u) */
 341:Generated_Source\PSoC4/CRC.c **** 
 342:Generated_Source\PSoC4/CRC.c **** 
 343:Generated_Source\PSoC4/CRC.c **** #if(CRC_CRC_SIZE <= 32u) /* 8-32 bits CRC */
 344:Generated_Source\PSoC4/CRC.c ****     /*******************************************************************************
 345:Generated_Source\PSoC4/CRC.c ****     * Function Name: CRC_ReadCRC
 346:Generated_Source\PSoC4/CRC.c ****     ********************************************************************************
 347:Generated_Source\PSoC4/CRC.c ****     *
 348:Generated_Source\PSoC4/CRC.c ****     * Summary:
 349:Generated_Source\PSoC4/CRC.c ****     *  Reads CRC value.
 350:Generated_Source\PSoC4/CRC.c ****     *
 351:Generated_Source\PSoC4/CRC.c ****     * Parameters:
 352:Generated_Source\PSoC4/CRC.c ****     *  void
 353:Generated_Source\PSoC4/CRC.c ****     *
 354:Generated_Source\PSoC4/CRC.c ****     * Return:
 355:Generated_Source\PSoC4/CRC.c ****     *  Returns CRC value.
 356:Generated_Source\PSoC4/CRC.c ****     *
 357:Generated_Source\PSoC4/CRC.c ****     * Side Effects:
 358:Generated_Source\PSoC4/CRC.c ****     *  The CRC value is cut according to mask = 2^(Resolution) - 1.
 359:Generated_Source\PSoC4/CRC.c ****     *  For example if CRC Resolution is 14 bits the mask value is:
 360:Generated_Source\PSoC4/CRC.c ****     *  mask = 2^(14) - 1 = 0x3FFFu.
 361:Generated_Source\PSoC4/CRC.c ****     *  The seed value = 0xFFFFu is cut:
 362:Generated_Source\PSoC4/CRC.c ****     *  seed & mask = 0xFFFFu & 0x3FFFu = 0x3FFFu.
 363:Generated_Source\PSoC4/CRC.c ****     *
 364:Generated_Source\PSoC4/CRC.c ****     *******************************************************************************/
 365:Generated_Source\PSoC4/CRC.c ****     uint16 CRC_ReadCRC(void) 
 366:Generated_Source\PSoC4/CRC.c ****     {
 128              		.loc 1 366 0
 129              		.cfi_startproc
 367:Generated_Source\PSoC4/CRC.c ****         /* Read CRC */
 368:Generated_Source\PSoC4/CRC.c ****         #if (CRC_TIME_MULTIPLEXING_ENABLE)
 369:Generated_Source\PSoC4/CRC.c **** 
 370:Generated_Source\PSoC4/CRC.c ****             uint16 seed;
 371:Generated_Source\PSoC4/CRC.c **** 
 372:Generated_Source\PSoC4/CRC.c ****             #if (CRC_CRC_SIZE <= 16u)          /* 16 bits CRC */
 373:Generated_Source\PSoC4/CRC.c ****                 seed = ((uint16) CRC_SEED_A__A1_REG) << 8u;
 374:Generated_Source\PSoC4/CRC.c ****                 seed |= CRC_SEED_A__A0_REG;
 375:Generated_Source\PSoC4/CRC.c **** 
 376:Generated_Source\PSoC4/CRC.c ****             #elif (CRC_CRC_SIZE <= 24u)        /* 24 bits CRC */
 377:Generated_Source\PSoC4/CRC.c ****                 seed = ((uint32) (CRC_SEED_B__A1_REG)) << 16u;
 378:Generated_Source\PSoC4/CRC.c ****                 seed |= ((uint32) (CRC_SEED_B__A0_REG)) << 8u;
 379:Generated_Source\PSoC4/CRC.c ****                 seed |= CRC_SEED_A__A0_REG;
 380:Generated_Source\PSoC4/CRC.c **** 
 381:Generated_Source\PSoC4/CRC.c ****             #else                                           /* 32 bits CRC */
 382:Generated_Source\PSoC4/CRC.c ****                 seed = ((uint32) CRC_SEED_B__A1_REG) << 24u;
 383:Generated_Source\PSoC4/CRC.c ****                 seed |= ((uint32) CRC_SEED_A__A1_REG) << 16u;
 384:Generated_Source\PSoC4/CRC.c ****                 seed |= ((uint32) CRC_SEED_B__A0_REG) << 8u;
ARM GAS  C:\Users\Feiyang\AppData\Local\Temp\cc3HajFB.s 			page 10


 385:Generated_Source\PSoC4/CRC.c ****                 seed |= CRC_SEED_A__A0_REG;
 386:Generated_Source\PSoC4/CRC.c **** 
 387:Generated_Source\PSoC4/CRC.c ****             #endif  /* End (CRC_CRC_SIZE <= 8u) */
 388:Generated_Source\PSoC4/CRC.c ****             
 389:Generated_Source\PSoC4/CRC.c ****             #if((0u != (CRC_CRC_SIZE % 8u)) || (CRC_CRC_SIZE == 24u))
 390:Generated_Source\PSoC4/CRC.c ****                 seed &= CRC_MASK;
 391:Generated_Source\PSoC4/CRC.c ****             #endif /* ((0u != (CRC_CRC_SIZE % 8u)) || (CRC_CRC_SIZE == 24u)) */
 392:Generated_Source\PSoC4/CRC.c ****             
 393:Generated_Source\PSoC4/CRC.c ****             return (seed);
 394:Generated_Source\PSoC4/CRC.c **** 
 395:Generated_Source\PSoC4/CRC.c ****         #else
 396:Generated_Source\PSoC4/CRC.c ****             
 397:Generated_Source\PSoC4/CRC.c ****             #if((0u != (CRC_CRC_SIZE % 8u)) || (CRC_CRC_SIZE == 24u))
 398:Generated_Source\PSoC4/CRC.c ****                 return (CY_GET_REG16(CRC_SEED_PTR)  & CRC_MASK);
 399:Generated_Source\PSoC4/CRC.c ****             #else
 400:Generated_Source\PSoC4/CRC.c ****                 return (CY_GET_REG16(CRC_SEED_PTR));
 130              		.loc 1 400 0
 131 0000 014B     		ldr	r3, .L11
 132 0002 1888     		ldrh	r0, [r3]
 133 0004 80B2     		uxth	r0, r0
 401:Generated_Source\PSoC4/CRC.c ****             #endif /* ((0u != (CRC_CRC_SIZE % 8u)) || (CRC_CRC_SIZE == 24u)) */
 402:Generated_Source\PSoC4/CRC.c ****             
 403:Generated_Source\PSoC4/CRC.c **** 
 404:Generated_Source\PSoC4/CRC.c ****         #endif  /* End (CRC_TIME_MULTIPLEXING_ENABLE) */
 405:Generated_Source\PSoC4/CRC.c ****     }
 134              		.loc 1 405 0
 135              		@ sp needed
 136 0006 7047     		bx	lr
 137              	.L12:
 138              		.align	2
 139              	.L11:
 140 0008 04100F40 		.word	1074728964
 141              		.cfi_endproc
 142              	.LFE5:
 143              		.size	CRC_ReadCRC, .-CRC_ReadCRC
 144              		.section	.text.CRC_WriteSeed,"ax",%progbits
 145              		.align	2
 146              		.global	CRC_WriteSeed
 147              		.code	16
 148              		.thumb_func
 149              		.type	CRC_WriteSeed, %function
 150              	CRC_WriteSeed:
 151              	.LFB6:
 406:Generated_Source\PSoC4/CRC.c **** 
 407:Generated_Source\PSoC4/CRC.c **** 
 408:Generated_Source\PSoC4/CRC.c ****     /*******************************************************************************
 409:Generated_Source\PSoC4/CRC.c ****     * Function Name: CRC_WriteSeed
 410:Generated_Source\PSoC4/CRC.c ****     ********************************************************************************
 411:Generated_Source\PSoC4/CRC.c ****     *
 412:Generated_Source\PSoC4/CRC.c ****     * Summary:
 413:Generated_Source\PSoC4/CRC.c ****     *  Writes seed value.
 414:Generated_Source\PSoC4/CRC.c ****     *
 415:Generated_Source\PSoC4/CRC.c ****     * Parameters:
 416:Generated_Source\PSoC4/CRC.c ****     *  seed:  Seed value.
 417:Generated_Source\PSoC4/CRC.c ****     *
 418:Generated_Source\PSoC4/CRC.c ****     * Return:
 419:Generated_Source\PSoC4/CRC.c ****     *  void
ARM GAS  C:\Users\Feiyang\AppData\Local\Temp\cc3HajFB.s 			page 11


 420:Generated_Source\PSoC4/CRC.c ****     *
 421:Generated_Source\PSoC4/CRC.c ****     * Side Effects:
 422:Generated_Source\PSoC4/CRC.c ****     *  The seed value is cut according to mask = 2^(Resolution) - 1.
 423:Generated_Source\PSoC4/CRC.c ****     *  For example if CRC Resolution is 14 bits the mask value is:
 424:Generated_Source\PSoC4/CRC.c ****     *  mask = 2^(14) - 1 = 0x3FFFu.
 425:Generated_Source\PSoC4/CRC.c ****     *  The seed value = 0xFFFFu is cut:
 426:Generated_Source\PSoC4/CRC.c ****     *  seed & mask = 0xFFFFu & 0x3FFFu = 0x3FFFu.
 427:Generated_Source\PSoC4/CRC.c ****     *
 428:Generated_Source\PSoC4/CRC.c ****     *******************************************************************************/
 429:Generated_Source\PSoC4/CRC.c ****     void CRC_WriteSeed(uint16 seed) 
 430:Generated_Source\PSoC4/CRC.c ****     {
 152              		.loc 1 430 0
 153              		.cfi_startproc
 154              	.LVL3:
 431:Generated_Source\PSoC4/CRC.c ****         /* Mask the Seed Upper half to cut unused bits in case, when CRC size is not byte-aligned o
 432:Generated_Source\PSoC4/CRC.c ****         #if((0u != (CRC_CRC_SIZE % 8u)) || (CRC_CRC_SIZE == 24u))
 433:Generated_Source\PSoC4/CRC.c ****             seed &= CRC_MASK;
 434:Generated_Source\PSoC4/CRC.c ****         #endif /* ((0u != (CRC_CRC_SIZE % 8u)) || (CRC_CRC_SIZE == 24u)) */
 435:Generated_Source\PSoC4/CRC.c **** 
 436:Generated_Source\PSoC4/CRC.c ****         /* Writes Seed */
 437:Generated_Source\PSoC4/CRC.c ****         #if (CRC_TIME_MULTIPLEXING_ENABLE)
 438:Generated_Source\PSoC4/CRC.c **** 
 439:Generated_Source\PSoC4/CRC.c ****             #if (CRC_CRC_SIZE <= 16u)          /* 16 bits CRC */
 440:Generated_Source\PSoC4/CRC.c ****                 CRC_SEED_A__A1_REG = HI8(seed);
 441:Generated_Source\PSoC4/CRC.c ****                 CRC_SEED_A__A0_REG = LO8(seed);
 442:Generated_Source\PSoC4/CRC.c **** 
 443:Generated_Source\PSoC4/CRC.c ****             #elif (CRC_CRC_SIZE <= 24u)        /* 24 bits CRC */
 444:Generated_Source\PSoC4/CRC.c ****                 CRC_SEED_B__A1_REG = LO8(HI16(seed));
 445:Generated_Source\PSoC4/CRC.c ****                 CRC_SEED_B__A0_REG = HI8(seed);
 446:Generated_Source\PSoC4/CRC.c ****                 CRC_SEED_A__A0_REG = LO8(seed);
 447:Generated_Source\PSoC4/CRC.c **** 
 448:Generated_Source\PSoC4/CRC.c ****             #else                                           /* 32 bits CRC */
 449:Generated_Source\PSoC4/CRC.c ****                 CRC_SEED_B__A1_REG = HI8(HI16(seed));
 450:Generated_Source\PSoC4/CRC.c ****                 CRC_SEED_A__A1_REG = LO8(HI16(seed));
 451:Generated_Source\PSoC4/CRC.c ****                 CRC_SEED_B__A0_REG = HI8(seed);
 452:Generated_Source\PSoC4/CRC.c ****                 CRC_SEED_A__A0_REG = LO8(seed);
 453:Generated_Source\PSoC4/CRC.c ****             #endif  /* End (CRC_CRC_SIZE <= 32u) */
 454:Generated_Source\PSoC4/CRC.c **** 
 455:Generated_Source\PSoC4/CRC.c ****             /* Resets triggers */
 456:Generated_Source\PSoC4/CRC.c ****             CRC_EXECUTE_DFF_RESET;
 457:Generated_Source\PSoC4/CRC.c **** 
 458:Generated_Source\PSoC4/CRC.c ****         #else
 459:Generated_Source\PSoC4/CRC.c **** 
 460:Generated_Source\PSoC4/CRC.c ****             CY_SET_REG16(CRC_SEED_PTR, seed);
 155              		.loc 1 460 0
 156 0000 014B     		ldr	r3, .L14
 157 0002 1880     		strh	r0, [r3]
 461:Generated_Source\PSoC4/CRC.c **** 
 462:Generated_Source\PSoC4/CRC.c ****         #endif  /* End (CRC_TIME_MULTIPLEXING_ENABLE) */
 463:Generated_Source\PSoC4/CRC.c ****     }
 158              		.loc 1 463 0
 159              		@ sp needed
 160 0004 7047     		bx	lr
 161              	.L15:
 162 0006 C046     		.align	2
 163              	.L14:
 164 0008 04100F40 		.word	1074728964
ARM GAS  C:\Users\Feiyang\AppData\Local\Temp\cc3HajFB.s 			page 12


 165              		.cfi_endproc
 166              	.LFE6:
 167              		.size	CRC_WriteSeed, .-CRC_WriteSeed
 168              		.section	.text.CRC_ReadPolynomial,"ax",%progbits
 169              		.align	2
 170              		.global	CRC_ReadPolynomial
 171              		.code	16
 172              		.thumb_func
 173              		.type	CRC_ReadPolynomial, %function
 174              	CRC_ReadPolynomial:
 175              	.LFB7:
 464:Generated_Source\PSoC4/CRC.c **** 
 465:Generated_Source\PSoC4/CRC.c **** 
 466:Generated_Source\PSoC4/CRC.c ****     /*******************************************************************************
 467:Generated_Source\PSoC4/CRC.c ****     * Function Name: CRC_ReadPolynomial
 468:Generated_Source\PSoC4/CRC.c ****     ********************************************************************************
 469:Generated_Source\PSoC4/CRC.c ****     *
 470:Generated_Source\PSoC4/CRC.c ****     * Summary:
 471:Generated_Source\PSoC4/CRC.c ****     *  Reads CRC polynomial value.
 472:Generated_Source\PSoC4/CRC.c ****     *
 473:Generated_Source\PSoC4/CRC.c ****     * Parameters:
 474:Generated_Source\PSoC4/CRC.c ****     *  void
 475:Generated_Source\PSoC4/CRC.c ****     *
 476:Generated_Source\PSoC4/CRC.c ****     * Return:
 477:Generated_Source\PSoC4/CRC.c ****     *  Returns CRC polynomial value.
 478:Generated_Source\PSoC4/CRC.c ****     *
 479:Generated_Source\PSoC4/CRC.c ****     *******************************************************************************/
 480:Generated_Source\PSoC4/CRC.c ****     uint16 CRC_ReadPolynomial(void)
 481:Generated_Source\PSoC4/CRC.c ****                                                
 482:Generated_Source\PSoC4/CRC.c ****     {
 176              		.loc 1 482 0
 177              		.cfi_startproc
 483:Generated_Source\PSoC4/CRC.c ****         /* Reads polynomial */
 484:Generated_Source\PSoC4/CRC.c ****         #if (CRC_TIME_MULTIPLEXING_ENABLE)
 485:Generated_Source\PSoC4/CRC.c **** 
 486:Generated_Source\PSoC4/CRC.c ****             uint16 polynomial;
 487:Generated_Source\PSoC4/CRC.c **** 
 488:Generated_Source\PSoC4/CRC.c ****             #if (CRC_CRC_SIZE <= 16u)          /* 16 bits CRC */
 489:Generated_Source\PSoC4/CRC.c ****                 polynomial = ((uint16) CRC_POLYNOM_A__D1_REG) << 8u;
 490:Generated_Source\PSoC4/CRC.c ****                 polynomial |= (CRC_POLYNOM_A__D0_REG);
 491:Generated_Source\PSoC4/CRC.c **** 
 492:Generated_Source\PSoC4/CRC.c ****             #elif (CRC_CRC_SIZE <= 24u)        /* 24 bits CRC */
 493:Generated_Source\PSoC4/CRC.c ****                 polynomial = ((uint32) CRC_POLYNOM_B__D1_REG) << 16u;
 494:Generated_Source\PSoC4/CRC.c ****                 polynomial |= ((uint32) CRC_POLYNOM_B__D0_REG) << 8u;
 495:Generated_Source\PSoC4/CRC.c ****                 polynomial |= CRC_POLYNOM_A__D0_REG;
 496:Generated_Source\PSoC4/CRC.c **** 
 497:Generated_Source\PSoC4/CRC.c ****             #else                                           /* 32 bits CRC */
 498:Generated_Source\PSoC4/CRC.c ****                 polynomial = ((uint32) CRC_POLYNOM_B__D1_REG) << 24u;
 499:Generated_Source\PSoC4/CRC.c ****                 polynomial |= ((uint32) CRC_POLYNOM_A__D1_REG) << 16u;
 500:Generated_Source\PSoC4/CRC.c ****                 polynomial |= ((uint32) CRC_POLYNOM_B__D0_REG) << 8u;
 501:Generated_Source\PSoC4/CRC.c ****                 polynomial |= CRC_POLYNOM_A__D0_REG;
 502:Generated_Source\PSoC4/CRC.c **** 
 503:Generated_Source\PSoC4/CRC.c ****             #endif  /* End (CRC_CRC_SIZE <= 32u) */
 504:Generated_Source\PSoC4/CRC.c **** 
 505:Generated_Source\PSoC4/CRC.c ****             return polynomial;
 506:Generated_Source\PSoC4/CRC.c **** 
 507:Generated_Source\PSoC4/CRC.c ****         #else
ARM GAS  C:\Users\Feiyang\AppData\Local\Temp\cc3HajFB.s 			page 13


 508:Generated_Source\PSoC4/CRC.c **** 
 509:Generated_Source\PSoC4/CRC.c ****             return CY_GET_REG16(CRC_POLYNOM_PTR);
 178              		.loc 1 509 0
 179 0000 014B     		ldr	r3, .L17
 180 0002 1888     		ldrh	r0, [r3]
 181 0004 80B2     		uxth	r0, r0
 510:Generated_Source\PSoC4/CRC.c **** 
 511:Generated_Source\PSoC4/CRC.c ****         #endif  /* End (CRC_TIME_MULTIPLEXING_ENABLE) */
 512:Generated_Source\PSoC4/CRC.c ****     }
 182              		.loc 1 512 0
 183              		@ sp needed
 184 0006 7047     		bx	lr
 185              	.L18:
 186              		.align	2
 187              	.L17:
 188 0008 44100F40 		.word	1074729028
 189              		.cfi_endproc
 190              	.LFE7:
 191              		.size	CRC_ReadPolynomial, .-CRC_ReadPolynomial
 192              		.section	.text.CRC_WritePolynomial,"ax",%progbits
 193              		.align	2
 194              		.global	CRC_WritePolynomial
 195              		.code	16
 196              		.thumb_func
 197              		.type	CRC_WritePolynomial, %function
 198              	CRC_WritePolynomial:
 199              	.LFB8:
 513:Generated_Source\PSoC4/CRC.c **** 
 514:Generated_Source\PSoC4/CRC.c **** 
 515:Generated_Source\PSoC4/CRC.c ****     /*******************************************************************************
 516:Generated_Source\PSoC4/CRC.c ****     * Function Name: CRC_WritePolynomial
 517:Generated_Source\PSoC4/CRC.c ****     ********************************************************************************
 518:Generated_Source\PSoC4/CRC.c ****     *
 519:Generated_Source\PSoC4/CRC.c ****     * Summary:
 520:Generated_Source\PSoC4/CRC.c ****     *  Writes CRC polynomial value.
 521:Generated_Source\PSoC4/CRC.c ****     *
 522:Generated_Source\PSoC4/CRC.c ****     * Parameters:
 523:Generated_Source\PSoC4/CRC.c ****     *  polynomial:  CRC polynomial.
 524:Generated_Source\PSoC4/CRC.c ****     *
 525:Generated_Source\PSoC4/CRC.c ****     * Return:
 526:Generated_Source\PSoC4/CRC.c ****     *  void
 527:Generated_Source\PSoC4/CRC.c ****     *
 528:Generated_Source\PSoC4/CRC.c ****     * Side Effects:
 529:Generated_Source\PSoC4/CRC.c ****     *  The polynomial value is cut according to mask = 2^(Resolution) - 1.
 530:Generated_Source\PSoC4/CRC.c ****     *  For example if CRC Resolution is 14 bits the mask value is:
 531:Generated_Source\PSoC4/CRC.c ****     *  mask = 2^(14) - 1 = 0x3FFFu.
 532:Generated_Source\PSoC4/CRC.c ****     *  The polynomial value = 0xFFFFu is cut:
 533:Generated_Source\PSoC4/CRC.c ****     *  polynomial & mask = 0xFFFFu & 0x3FFFu = 0x3FFFu.
 534:Generated_Source\PSoC4/CRC.c ****     *
 535:Generated_Source\PSoC4/CRC.c ****     *******************************************************************************/
 536:Generated_Source\PSoC4/CRC.c ****     void CRC_WritePolynomial(uint16 polynomial)
 537:Generated_Source\PSoC4/CRC.c ****                                           
 538:Generated_Source\PSoC4/CRC.c ****     {
 200              		.loc 1 538 0
 201              		.cfi_startproc
 202              	.LVL4:
 539:Generated_Source\PSoC4/CRC.c ****         /* Mask polynomial to cut unused bits in case, when CRC size is not byte-aligned or equal 2
ARM GAS  C:\Users\Feiyang\AppData\Local\Temp\cc3HajFB.s 			page 14


 540:Generated_Source\PSoC4/CRC.c ****         #if((0u != (CRC_CRC_SIZE % 8u)) || (CRC_CRC_SIZE == 24u))
 541:Generated_Source\PSoC4/CRC.c ****             polynomial &= CRC_MASK;
 542:Generated_Source\PSoC4/CRC.c ****         #endif /* ((0u != (CRC_CRC_SIZE % 8u)) || (CRC_CRC_SIZE == 24u)) */
 543:Generated_Source\PSoC4/CRC.c **** 
 544:Generated_Source\PSoC4/CRC.c ****         /* Write polynomial */
 545:Generated_Source\PSoC4/CRC.c ****         #if (CRC_TIME_MULTIPLEXING_ENABLE)
 546:Generated_Source\PSoC4/CRC.c **** 
 547:Generated_Source\PSoC4/CRC.c ****             #if (CRC_CRC_SIZE <= 16u)          /* 16 bits CRC */
 548:Generated_Source\PSoC4/CRC.c **** 
 549:Generated_Source\PSoC4/CRC.c ****                 CRC_POLYNOM_A__D1_REG = HI8(polynomial);
 550:Generated_Source\PSoC4/CRC.c ****                 CRC_POLYNOM_A__D0_REG = LO8(polynomial);
 551:Generated_Source\PSoC4/CRC.c **** 
 552:Generated_Source\PSoC4/CRC.c ****             #elif (CRC_CRC_SIZE <= 24u)        /* 24 bits CRC */
 553:Generated_Source\PSoC4/CRC.c ****                 CRC_POLYNOM_B__D1_REG = LO8(HI16(polynomial));
 554:Generated_Source\PSoC4/CRC.c ****                 CRC_POLYNOM_B__D0_REG = HI8(polynomial);
 555:Generated_Source\PSoC4/CRC.c ****                 CRC_POLYNOM_A__D0_REG = LO8(polynomial);
 556:Generated_Source\PSoC4/CRC.c **** 
 557:Generated_Source\PSoC4/CRC.c ****             #else                                           /* 32 bits CRC */
 558:Generated_Source\PSoC4/CRC.c ****                 CRC_POLYNOM_B__D1_REG = HI8(HI16(polynomial));
 559:Generated_Source\PSoC4/CRC.c ****                 CRC_POLYNOM_A__D1_REG = LO8(HI16(polynomial));
 560:Generated_Source\PSoC4/CRC.c ****                 CRC_POLYNOM_B__D0_REG = HI8(polynomial);
 561:Generated_Source\PSoC4/CRC.c ****                 CRC_POLYNOM_A__D0_REG = LO8(polynomial);
 562:Generated_Source\PSoC4/CRC.c **** 
 563:Generated_Source\PSoC4/CRC.c ****             #endif  /* End (CRC_CRC_SIZE <= 32u) */
 564:Generated_Source\PSoC4/CRC.c **** 
 565:Generated_Source\PSoC4/CRC.c ****             /* Resets triggers */
 566:Generated_Source\PSoC4/CRC.c ****             CRC_EXECUTE_DFF_RESET;
 567:Generated_Source\PSoC4/CRC.c **** 
 568:Generated_Source\PSoC4/CRC.c ****         #else
 569:Generated_Source\PSoC4/CRC.c **** 
 570:Generated_Source\PSoC4/CRC.c ****             CY_SET_REG16(CRC_POLYNOM_PTR, polynomial);
 203              		.loc 1 570 0
 204 0000 014B     		ldr	r3, .L20
 205 0002 1880     		strh	r0, [r3]
 571:Generated_Source\PSoC4/CRC.c **** 
 572:Generated_Source\PSoC4/CRC.c ****         #endif  /* End (CRC_TIME_MULTIPLEXING_ENABLE) */
 573:Generated_Source\PSoC4/CRC.c ****     }
 206              		.loc 1 573 0
 207              		@ sp needed
 208 0004 7047     		bx	lr
 209              	.L21:
 210 0006 C046     		.align	2
 211              	.L20:
 212 0008 44100F40 		.word	1074729028
 213              		.cfi_endproc
 214              	.LFE8:
 215              		.size	CRC_WritePolynomial, .-CRC_WritePolynomial
 216              		.section	.text.CRC_Init,"ax",%progbits
 217              		.align	2
 218              		.global	CRC_Init
 219              		.code	16
 220              		.thumb_func
 221              		.type	CRC_Init, %function
 222              	CRC_Init:
 223              	.LFB0:
  57:Generated_Source\PSoC4/CRC.c ****     /* Writes seed value and ponynom value provided for customizer */
 224              		.loc 1 57 0
ARM GAS  C:\Users\Feiyang\AppData\Local\Temp\cc3HajFB.s 			page 15


 225              		.cfi_startproc
 226 0000 08B5     		push	{r3, lr}
 227              		.cfi_def_cfa_offset 8
 228              		.cfi_offset 3, -8
 229              		.cfi_offset 14, -4
  60:Generated_Source\PSoC4/CRC.c ****         CRC_WriteSeed(CRC_DEFAULT_SEED);
 230              		.loc 1 60 0
 231 0002 0548     		ldr	r0, .L23
 232 0004 FFF7FEFF 		bl	CRC_WritePolynomial
 233              	.LVL5:
  61:Generated_Source\PSoC4/CRC.c ****         CRC_ResetSeedInit(CRC_DEFAULT_SEED);
 234              		.loc 1 61 0
 235 0008 0020     		mov	r0, #0
 236 000a FFF7FEFF 		bl	CRC_WriteSeed
 237              	.LVL6:
  62:Generated_Source\PSoC4/CRC.c **** 
 238              		.loc 1 62 0
 239 000e 0020     		mov	r0, #0
 240 0010 FFF7FEFF 		bl	CRC_ResetSeedInit
 241              	.LVL7:
  73:Generated_Source\PSoC4/CRC.c **** 
 242              		.loc 1 73 0
 243              		@ sp needed
 244 0014 08BD     		pop	{r3, pc}
 245              	.L24:
 246 0016 C046     		.align	2
 247              	.L23:
 248 0018 02C00000 		.word	49154
 249              		.cfi_endproc
 250              	.LFE0:
 251              		.size	CRC_Init, .-CRC_Init
 252              		.section	.text.CRC_Start,"ax",%progbits
 253              		.align	2
 254              		.global	CRC_Start
 255              		.code	16
 256              		.thumb_func
 257              		.type	CRC_Start, %function
 258              	CRC_Start:
 259              	.LFB2:
 119:Generated_Source\PSoC4/CRC.c ****     /* Writes seed value and ponynom value provided from customizer */
 260              		.loc 1 119 0
 261              		.cfi_startproc
 262 0000 08B5     		push	{r3, lr}
 263              		.cfi_def_cfa_offset 8
 264              		.cfi_offset 3, -8
 265              		.cfi_offset 14, -4
 121:Generated_Source\PSoC4/CRC.c ****     {
 266              		.loc 1 121 0
 267 0002 064B     		ldr	r3, .L27
 268 0004 1B78     		ldrb	r3, [r3]
 269 0006 002B     		cmp	r3, #0
 270 0008 04D1     		bne	.L26
 123:Generated_Source\PSoC4/CRC.c ****         CRC_initVar = 1u;
 271              		.loc 1 123 0
 272 000a FFF7FEFF 		bl	CRC_Init
 273              	.LVL8:
 124:Generated_Source\PSoC4/CRC.c ****     }
ARM GAS  C:\Users\Feiyang\AppData\Local\Temp\cc3HajFB.s 			page 16


 274              		.loc 1 124 0
 275 000e 0122     		mov	r2, #1
 276 0010 024B     		ldr	r3, .L27
 277 0012 1A70     		strb	r2, [r3]
 278              	.L26:
 127:Generated_Source\PSoC4/CRC.c **** }
 279              		.loc 1 127 0
 280 0014 FFF7FEFF 		bl	CRC_Enable
 281              	.LVL9:
 128:Generated_Source\PSoC4/CRC.c **** 
 282              		.loc 1 128 0
 283              		@ sp needed
 284 0018 08BD     		pop	{r3, pc}
 285              	.L28:
 286 001a C046     		.align	2
 287              	.L27:
 288 001c 00000000 		.word	.LANCHOR0
 289              		.cfi_endproc
 290              	.LFE2:
 291              		.size	CRC_Start, .-CRC_Start
 292              		.global	CRC_backup
 293              		.global	CRC_initVar
 294              		.bss
 295              		.align	2
 296              		.set	.LANCHOR0,. + 0
 297              		.type	CRC_initVar, %object
 298              		.size	CRC_initVar, 1
 299              	CRC_initVar:
 300 0000 00       		.space	1
 301 0001 000000   		.space	3
 302              		.type	CRC_backup, %object
 303              		.size	CRC_backup, 1
 304              	CRC_backup:
 305 0004 00       		.space	1
 306 0005 000000   		.text
 307              	.Letext0:
 308              		.file 2 "Generated_Source\\PSoC4\\cytypes.h"
 309              		.file 3 "Generated_Source\\PSoC4\\CRC.h"
 310              		.file 4 "Generated_Source\\PSoC4\\CyLib.h"