ARM GAS  C:\Users\Feiyang\AppData\Local\Temp\ccCV88WC.s 			page 1


   1              		.cpu cortex-m0
   2              		.fpu softvfp
   3              		.eabi_attribute 20, 1
   4              		.eabi_attribute 21, 1
   5              		.eabi_attribute 23, 3
   6              		.eabi_attribute 24, 1
   7              		.eabi_attribute 25, 1
   8              		.eabi_attribute 26, 1
   9              		.eabi_attribute 30, 1
  10              		.eabi_attribute 34, 0
  11              		.eabi_attribute 18, 4
  12              		.code	16
  13              		.file	"CRC_1_PM.c"
  14              		.text
  15              	.Ltext0:
  16              		.cfi_sections	.debug_frame
  17              		.section	.text.CRC_1_SaveConfig,"ax",%progbits
  18              		.align	2
  19              		.global	CRC_1_SaveConfig
  20              		.code	16
  21              		.thumb_func
  22              		.type	CRC_1_SaveConfig, %function
  23              	CRC_1_SaveConfig:
  24              	.LFB0:
  25              		.file 1 "Generated_Source\\PSoC4\\CRC_1_PM.c"
   1:Generated_Source\PSoC4/CRC_1_PM.c **** /*******************************************************************************
   2:Generated_Source\PSoC4/CRC_1_PM.c **** * File Name: CRC_1_PM.c
   3:Generated_Source\PSoC4/CRC_1_PM.c **** * Version 2.40
   4:Generated_Source\PSoC4/CRC_1_PM.c **** *
   5:Generated_Source\PSoC4/CRC_1_PM.c **** * Description:
   6:Generated_Source\PSoC4/CRC_1_PM.c **** *  This file provides Sleep APIs for CRC component.
   7:Generated_Source\PSoC4/CRC_1_PM.c **** *
   8:Generated_Source\PSoC4/CRC_1_PM.c **** * Note:
   9:Generated_Source\PSoC4/CRC_1_PM.c **** *  None
  10:Generated_Source\PSoC4/CRC_1_PM.c **** *
  11:Generated_Source\PSoC4/CRC_1_PM.c **** ********************************************************************************
  12:Generated_Source\PSoC4/CRC_1_PM.c **** * Copyright 2008-2013, Cypress Semiconductor Corporation.  All rights reserved.
  13:Generated_Source\PSoC4/CRC_1_PM.c **** * You may use this file only in accordance with the license, terms, conditions, 
  14:Generated_Source\PSoC4/CRC_1_PM.c **** * disclaimers, and limitations in the end user license agreement accompanying 
  15:Generated_Source\PSoC4/CRC_1_PM.c **** * the software package with which this file was provided.
  16:Generated_Source\PSoC4/CRC_1_PM.c **** *******************************************************************************/
  17:Generated_Source\PSoC4/CRC_1_PM.c **** 
  18:Generated_Source\PSoC4/CRC_1_PM.c **** #include "CRC_1.h"
  19:Generated_Source\PSoC4/CRC_1_PM.c **** 
  20:Generated_Source\PSoC4/CRC_1_PM.c **** 
  21:Generated_Source\PSoC4/CRC_1_PM.c **** /*******************************************************************************
  22:Generated_Source\PSoC4/CRC_1_PM.c **** * Function Name: CRC_1_SaveConfig
  23:Generated_Source\PSoC4/CRC_1_PM.c **** ********************************************************************************
  24:Generated_Source\PSoC4/CRC_1_PM.c **** *
  25:Generated_Source\PSoC4/CRC_1_PM.c **** * Summary:
  26:Generated_Source\PSoC4/CRC_1_PM.c **** *  Saves seed and polynomial registers.
  27:Generated_Source\PSoC4/CRC_1_PM.c **** *
  28:Generated_Source\PSoC4/CRC_1_PM.c **** * Parameters:
  29:Generated_Source\PSoC4/CRC_1_PM.c **** *  void
  30:Generated_Source\PSoC4/CRC_1_PM.c **** *
  31:Generated_Source\PSoC4/CRC_1_PM.c **** * Return:
  32:Generated_Source\PSoC4/CRC_1_PM.c **** *  void
ARM GAS  C:\Users\Feiyang\AppData\Local\Temp\ccCV88WC.s 			page 2


  33:Generated_Source\PSoC4/CRC_1_PM.c **** *
  34:Generated_Source\PSoC4/CRC_1_PM.c **** * Global Variables:
  35:Generated_Source\PSoC4/CRC_1_PM.c **** *  CRC_1_backup - modified when non-retention registers are saved.
  36:Generated_Source\PSoC4/CRC_1_PM.c **** *
  37:Generated_Source\PSoC4/CRC_1_PM.c **** *******************************************************************************/
  38:Generated_Source\PSoC4/CRC_1_PM.c **** void CRC_1_SaveConfig(void) 
  39:Generated_Source\PSoC4/CRC_1_PM.c **** {       
  26              		.loc 1 39 0
  27              		.cfi_startproc
  40:Generated_Source\PSoC4/CRC_1_PM.c ****     /* Save D0 and D1 registers are none-retention for Panther ES1 */
  41:Generated_Source\PSoC4/CRC_1_PM.c ****     #if (CY_UDB_V0)
  42:Generated_Source\PSoC4/CRC_1_PM.c ****     
  43:Generated_Source\PSoC4/CRC_1_PM.c ****         #if(CRC_1_CRC_SIZE <= 32u)
  44:Generated_Source\PSoC4/CRC_1_PM.c ****             CRC_1_backup.polynomial = CRC_1_ReadPolynomial();
  45:Generated_Source\PSoC4/CRC_1_PM.c ****             
  46:Generated_Source\PSoC4/CRC_1_PM.c ****         #else
  47:Generated_Source\PSoC4/CRC_1_PM.c ****             CRC_1_backup.polynomialUpper = CRC_1_ReadPolynomialUpper();
  48:Generated_Source\PSoC4/CRC_1_PM.c ****             CRC_1_backup.polynomialLower = CRC_1_ReadPolynomialLower();
  49:Generated_Source\PSoC4/CRC_1_PM.c ****             
  50:Generated_Source\PSoC4/CRC_1_PM.c ****         #endif  /* End (CRC_1_CRC_SIZE <= 32u) */
  51:Generated_Source\PSoC4/CRC_1_PM.c ****         
  52:Generated_Source\PSoC4/CRC_1_PM.c ****     #endif  /* End (CY_UDB_V0) */
  53:Generated_Source\PSoC4/CRC_1_PM.c **** }
  28              		.loc 1 53 0
  29              		@ sp needed
  30 0000 7047     		bx	lr
  31              		.cfi_endproc
  32              	.LFE0:
  33              		.size	CRC_1_SaveConfig, .-CRC_1_SaveConfig
  34 0002 C046     		.section	.text.CRC_1_Sleep,"ax",%progbits
  35              		.align	2
  36              		.global	CRC_1_Sleep
  37              		.code	16
  38              		.thumb_func
  39              		.type	CRC_1_Sleep, %function
  40              	CRC_1_Sleep:
  41              	.LFB1:
  54:Generated_Source\PSoC4/CRC_1_PM.c **** 
  55:Generated_Source\PSoC4/CRC_1_PM.c **** 
  56:Generated_Source\PSoC4/CRC_1_PM.c **** /*******************************************************************************
  57:Generated_Source\PSoC4/CRC_1_PM.c **** * Function Name: CRC_1_Sleep
  58:Generated_Source\PSoC4/CRC_1_PM.c **** ********************************************************************************
  59:Generated_Source\PSoC4/CRC_1_PM.c **** *
  60:Generated_Source\PSoC4/CRC_1_PM.c **** * Summary:
  61:Generated_Source\PSoC4/CRC_1_PM.c **** *  Stops CRC computation and saves CRC configuration.
  62:Generated_Source\PSoC4/CRC_1_PM.c **** *
  63:Generated_Source\PSoC4/CRC_1_PM.c **** * Parameters:
  64:Generated_Source\PSoC4/CRC_1_PM.c **** *  void
  65:Generated_Source\PSoC4/CRC_1_PM.c **** *
  66:Generated_Source\PSoC4/CRC_1_PM.c **** * Return:
  67:Generated_Source\PSoC4/CRC_1_PM.c **** *  void
  68:Generated_Source\PSoC4/CRC_1_PM.c **** *
  69:Generated_Source\PSoC4/CRC_1_PM.c **** * Global Variables:
  70:Generated_Source\PSoC4/CRC_1_PM.c **** *  CRC_1_backup - modified when non-retention registers are saved.
  71:Generated_Source\PSoC4/CRC_1_PM.c **** *
  72:Generated_Source\PSoC4/CRC_1_PM.c **** *******************************************************************************/
  73:Generated_Source\PSoC4/CRC_1_PM.c **** void CRC_1_Sleep(void) 
ARM GAS  C:\Users\Feiyang\AppData\Local\Temp\ccCV88WC.s 			page 3


  74:Generated_Source\PSoC4/CRC_1_PM.c **** {
  42              		.loc 1 74 0
  43              		.cfi_startproc
  44 0000 08B5     		push	{r3, lr}
  45              		.cfi_def_cfa_offset 8
  46              		.cfi_offset 3, -8
  47              		.cfi_offset 14, -4
  75:Generated_Source\PSoC4/CRC_1_PM.c ****     /* Store CRC enable state */
  76:Generated_Source\PSoC4/CRC_1_PM.c ****     if(0u != (CRC_1_CONTROL_REG & CRC_1_CTRL_ENABLE))
  48              		.loc 1 76 0
  49 0002 074B     		ldr	r3, .L5
  50 0004 1B78     		ldrb	r3, [r3]
  51 0006 DB07     		lsl	r3, r3, #31
  52 0008 05D5     		bpl	.L3
  77:Generated_Source\PSoC4/CRC_1_PM.c ****     {
  78:Generated_Source\PSoC4/CRC_1_PM.c ****         CRC_1_backup.enableState = 1u;
  53              		.loc 1 78 0
  54 000a 0122     		mov	r2, #1
  55 000c 054B     		ldr	r3, .L5+4
  56 000e 1A70     		strb	r2, [r3]
  79:Generated_Source\PSoC4/CRC_1_PM.c ****         CRC_1_Stop();
  57              		.loc 1 79 0
  58 0010 FFF7FEFF 		bl	CRC_1_Stop
  59              	.LVL0:
  60 0014 02E0     		b	.L2
  61              	.L3:
  80:Generated_Source\PSoC4/CRC_1_PM.c ****     }
  81:Generated_Source\PSoC4/CRC_1_PM.c ****     else
  82:Generated_Source\PSoC4/CRC_1_PM.c ****     {
  83:Generated_Source\PSoC4/CRC_1_PM.c ****         CRC_1_backup.enableState = 0u;
  62              		.loc 1 83 0
  63 0016 0022     		mov	r2, #0
  64 0018 024B     		ldr	r3, .L5+4
  65 001a 1A70     		strb	r2, [r3]
  66              	.L2:
  84:Generated_Source\PSoC4/CRC_1_PM.c ****     }
  85:Generated_Source\PSoC4/CRC_1_PM.c ****     
  86:Generated_Source\PSoC4/CRC_1_PM.c ****     CRC_1_SaveConfig();
  87:Generated_Source\PSoC4/CRC_1_PM.c **** }
  67              		.loc 1 87 0
  68              		@ sp needed
  69 001c 08BD     		pop	{r3, pc}
  70              	.L6:
  71 001e C046     		.align	2
  72              	.L5:
  73 0020 71000F40 		.word	1074724977
  74 0024 00000000 		.word	CRC_1_backup
  75              		.cfi_endproc
  76              	.LFE1:
  77              		.size	CRC_1_Sleep, .-CRC_1_Sleep
  78              		.section	.text.CRC_1_RestoreConfig,"ax",%progbits
  79              		.align	2
  80              		.global	CRC_1_RestoreConfig
  81              		.code	16
  82              		.thumb_func
  83              		.type	CRC_1_RestoreConfig, %function
  84              	CRC_1_RestoreConfig:
ARM GAS  C:\Users\Feiyang\AppData\Local\Temp\ccCV88WC.s 			page 4


  85              	.LFB2:
  88:Generated_Source\PSoC4/CRC_1_PM.c **** 
  89:Generated_Source\PSoC4/CRC_1_PM.c **** 
  90:Generated_Source\PSoC4/CRC_1_PM.c **** /*******************************************************************************
  91:Generated_Source\PSoC4/CRC_1_PM.c **** * Function Name: CRC_1_RestoreConfig
  92:Generated_Source\PSoC4/CRC_1_PM.c **** ********************************************************************************
  93:Generated_Source\PSoC4/CRC_1_PM.c **** *
  94:Generated_Source\PSoC4/CRC_1_PM.c **** * Summary:
  95:Generated_Source\PSoC4/CRC_1_PM.c **** *  Restores seed and polynomial registers.
  96:Generated_Source\PSoC4/CRC_1_PM.c **** *
  97:Generated_Source\PSoC4/CRC_1_PM.c **** * Parameters:
  98:Generated_Source\PSoC4/CRC_1_PM.c **** *  void
  99:Generated_Source\PSoC4/CRC_1_PM.c **** *
 100:Generated_Source\PSoC4/CRC_1_PM.c **** * Return:
 101:Generated_Source\PSoC4/CRC_1_PM.c **** *  void
 102:Generated_Source\PSoC4/CRC_1_PM.c **** *
 103:Generated_Source\PSoC4/CRC_1_PM.c **** *******************************************************************************/
 104:Generated_Source\PSoC4/CRC_1_PM.c **** void CRC_1_RestoreConfig(void) 
 105:Generated_Source\PSoC4/CRC_1_PM.c **** {      
  86              		.loc 1 105 0
  87              		.cfi_startproc
  88 0000 08B5     		push	{r3, lr}
  89              		.cfi_def_cfa_offset 8
  90              		.cfi_offset 3, -8
  91              		.cfi_offset 14, -4
 106:Generated_Source\PSoC4/CRC_1_PM.c ****     /* Restore D0 and D1 registers are none-retention for Panther ES1 */
 107:Generated_Source\PSoC4/CRC_1_PM.c ****     #if (CY_UDB_V0)
 108:Generated_Source\PSoC4/CRC_1_PM.c ****     
 109:Generated_Source\PSoC4/CRC_1_PM.c ****         #if(CRC_1_CRC_SIZE <= 32u)
 110:Generated_Source\PSoC4/CRC_1_PM.c ****             CRC_1_WritePolynomial(CRC_1_backup.polynomial);
 111:Generated_Source\PSoC4/CRC_1_PM.c ****             
 112:Generated_Source\PSoC4/CRC_1_PM.c ****         #else
 113:Generated_Source\PSoC4/CRC_1_PM.c ****             CRC_1_WritePolynomialUpper(CRC_1_backup.polynomialUpper);
 114:Generated_Source\PSoC4/CRC_1_PM.c ****             CRC_1_WritePolynomialLower(CRC_1_backup.polynomialLower);
 115:Generated_Source\PSoC4/CRC_1_PM.c ****             
 116:Generated_Source\PSoC4/CRC_1_PM.c ****         #endif  /* End (CY_UDB_V0) */
 117:Generated_Source\PSoC4/CRC_1_PM.c ****         
 118:Generated_Source\PSoC4/CRC_1_PM.c ****     #endif  /* End (CRC_1_CRC_SIZE <= 32u) */
 119:Generated_Source\PSoC4/CRC_1_PM.c ****     
 120:Generated_Source\PSoC4/CRC_1_PM.c ****     #if (CRC_1_CRC_SIZE <= 32u)
 121:Generated_Source\PSoC4/CRC_1_PM.c ****         CRC_1_WriteSeed(CRC_1_DEFAULT_SEED);                        
  92              		.loc 1 121 0
  93 0002 0020     		mov	r0, #0
  94 0004 FFF7FEFF 		bl	CRC_1_WriteSeed
  95              	.LVL1:
 122:Generated_Source\PSoC4/CRC_1_PM.c ****     #else
 123:Generated_Source\PSoC4/CRC_1_PM.c ****         CRC_1_WriteSeedUpper(CRC_1_DEFAULT_SEED_UPPER);
 124:Generated_Source\PSoC4/CRC_1_PM.c ****         CRC_1_WriteSeedLower(CRC_1_DEFAULT_SEED_LOWER); 
 125:Generated_Source\PSoC4/CRC_1_PM.c ****     #endif  /* End (CRC_1_CRC_SIZE <= 32u) */
 126:Generated_Source\PSoC4/CRC_1_PM.c ****     
 127:Generated_Source\PSoC4/CRC_1_PM.c ****     #if (CRC_1_CRC_SIZE <= 32u)
 128:Generated_Source\PSoC4/CRC_1_PM.c ****         CRC_1_ResetSeedInit(CRC_1_DEFAULT_SEED);                        
  96              		.loc 1 128 0
  97 0008 0020     		mov	r0, #0
  98 000a FFF7FEFF 		bl	CRC_1_ResetSeedInit
  99              	.LVL2:
 129:Generated_Source\PSoC4/CRC_1_PM.c ****     #else
ARM GAS  C:\Users\Feiyang\AppData\Local\Temp\ccCV88WC.s 			page 5


 130:Generated_Source\PSoC4/CRC_1_PM.c ****         CRC_1_ResetSeedInitUpper(CRC_1_DEFAULT_SEED_UPPER);
 131:Generated_Source\PSoC4/CRC_1_PM.c ****         CRC_1_ResetSeedInitLower(CRC_1_DEFAULT_SEED_LOWER); 
 132:Generated_Source\PSoC4/CRC_1_PM.c ****     #endif  /* End (CRC_1_CRC_SIZE <= 32u) */
 133:Generated_Source\PSoC4/CRC_1_PM.c **** }
 100              		.loc 1 133 0
 101              		@ sp needed
 102 000e 08BD     		pop	{r3, pc}
 103              		.cfi_endproc
 104              	.LFE2:
 105              		.size	CRC_1_RestoreConfig, .-CRC_1_RestoreConfig
 106              		.section	.text.CRC_1_Wakeup,"ax",%progbits
 107              		.align	2
 108              		.global	CRC_1_Wakeup
 109              		.code	16
 110              		.thumb_func
 111              		.type	CRC_1_Wakeup, %function
 112              	CRC_1_Wakeup:
 113              	.LFB3:
 134:Generated_Source\PSoC4/CRC_1_PM.c **** 
 135:Generated_Source\PSoC4/CRC_1_PM.c **** 
 136:Generated_Source\PSoC4/CRC_1_PM.c **** /*******************************************************************************
 137:Generated_Source\PSoC4/CRC_1_PM.c **** * Function Name: CRC_1_Wakeup
 138:Generated_Source\PSoC4/CRC_1_PM.c **** ********************************************************************************
 139:Generated_Source\PSoC4/CRC_1_PM.c **** *
 140:Generated_Source\PSoC4/CRC_1_PM.c **** * Summary:
 141:Generated_Source\PSoC4/CRC_1_PM.c **** *  Restores CRC configuration and starts CRC computation. 
 142:Generated_Source\PSoC4/CRC_1_PM.c **** *
 143:Generated_Source\PSoC4/CRC_1_PM.c **** * Parameters:
 144:Generated_Source\PSoC4/CRC_1_PM.c **** *  void
 145:Generated_Source\PSoC4/CRC_1_PM.c **** *
 146:Generated_Source\PSoC4/CRC_1_PM.c **** * Return:
 147:Generated_Source\PSoC4/CRC_1_PM.c **** *  void
 148:Generated_Source\PSoC4/CRC_1_PM.c **** * 
 149:Generated_Source\PSoC4/CRC_1_PM.c **** *******************************************************************************/
 150:Generated_Source\PSoC4/CRC_1_PM.c **** void CRC_1_Wakeup(void) 
 151:Generated_Source\PSoC4/CRC_1_PM.c **** {
 114              		.loc 1 151 0
 115              		.cfi_startproc
 116 0000 08B5     		push	{r3, lr}
 117              		.cfi_def_cfa_offset 8
 118              		.cfi_offset 3, -8
 119              		.cfi_offset 14, -4
 152:Generated_Source\PSoC4/CRC_1_PM.c ****     CRC_1_RestoreConfig();
 120              		.loc 1 152 0
 121 0002 FFF7FEFF 		bl	CRC_1_RestoreConfig
 122              	.LVL3:
 153:Generated_Source\PSoC4/CRC_1_PM.c ****     
 154:Generated_Source\PSoC4/CRC_1_PM.c ****     /* Restore CRC enable state */
 155:Generated_Source\PSoC4/CRC_1_PM.c ****     if (CRC_1_backup.enableState != 0u)
 123              		.loc 1 155 0
 124 0006 034B     		ldr	r3, .L10
 125 0008 1B78     		ldrb	r3, [r3]
 126 000a 002B     		cmp	r3, #0
 127 000c 01D0     		beq	.L8
 156:Generated_Source\PSoC4/CRC_1_PM.c ****     {
 157:Generated_Source\PSoC4/CRC_1_PM.c ****         CRC_1_Enable();
 128              		.loc 1 157 0
ARM GAS  C:\Users\Feiyang\AppData\Local\Temp\ccCV88WC.s 			page 6


 129 000e FFF7FEFF 		bl	CRC_1_Enable
 130              	.LVL4:
 131              	.L8:
 158:Generated_Source\PSoC4/CRC_1_PM.c ****     }
 159:Generated_Source\PSoC4/CRC_1_PM.c **** }
 132              		.loc 1 159 0
 133              		@ sp needed
 134 0012 08BD     		pop	{r3, pc}
 135              	.L11:
 136              		.align	2
 137              	.L10:
 138 0014 00000000 		.word	CRC_1_backup
 139              		.cfi_endproc
 140              	.LFE3:
 141              		.size	CRC_1_Wakeup, .-CRC_1_Wakeup
 142              		.text
 143              	.Letext0:
 144              		.file 2 "Generated_Source\\PSoC4\\cytypes.h"
 145              		.file 3 "Generated_Source\\PSoC4\\CRC_1.h"