ARM GAS  C:\Users\Feiyang\AppData\Local\Temp\ccPo2xg9.s 			page 1


   1              		.cpu cortex-m0
   2              		.fpu softvfp
   3              		.eabi_attribute 20, 1
   4              		.eabi_attribute 21, 1
   5              		.eabi_attribute 23, 3
   6              		.eabi_attribute 24, 1
   7              		.eabi_attribute 25, 1
   8              		.eabi_attribute 26, 1
   9              		.eabi_attribute 30, 1
  10              		.eabi_attribute 34, 0
  11              		.eabi_attribute 18, 4
  12              		.code	16
  13              		.file	"cyfitter_cfg.c"
  14              		.text
  15              	.Ltext0:
  16              		.cfi_sections	.debug_frame
  17              		.section	.text.cfg_write_bytes32,"ax",%progbits
  18              		.align	2
  19              		.code	16
  20              		.thumb_func
  21              		.type	cfg_write_bytes32, %function
  22              	cfg_write_bytes32:
  23              	.LFB3:
  24              		.file 1 "Generated_Source\\PSoC4\\cyfitter_cfg.c"
   1:Generated_Source\PSoC4/cyfitter_cfg.c **** /*******************************************************************************
   2:Generated_Source\PSoC4/cyfitter_cfg.c **** * File Name: cyfitter_cfg.c
   3:Generated_Source\PSoC4/cyfitter_cfg.c **** * 
   4:Generated_Source\PSoC4/cyfitter_cfg.c **** * PSoC Creator  4.0 Update 1
   5:Generated_Source\PSoC4/cyfitter_cfg.c **** *
   6:Generated_Source\PSoC4/cyfitter_cfg.c **** * Description:
   7:Generated_Source\PSoC4/cyfitter_cfg.c **** * This file contains device initialization code.
   8:Generated_Source\PSoC4/cyfitter_cfg.c **** * Except for the user defined sections in CyClockStartupError(), this file should not be modified.
   9:Generated_Source\PSoC4/cyfitter_cfg.c **** * This file is automatically generated by PSoC Creator.
  10:Generated_Source\PSoC4/cyfitter_cfg.c **** *
  11:Generated_Source\PSoC4/cyfitter_cfg.c **** ********************************************************************************
  12:Generated_Source\PSoC4/cyfitter_cfg.c **** * Copyright (c) 2007-2016 Cypress Semiconductor.  All rights reserved.
  13:Generated_Source\PSoC4/cyfitter_cfg.c **** * You may use this file only in accordance with the license, terms, conditions, 
  14:Generated_Source\PSoC4/cyfitter_cfg.c **** * disclaimers, and limitations in the end user license agreement accompanying 
  15:Generated_Source\PSoC4/cyfitter_cfg.c **** * the software package with which this file was provided.
  16:Generated_Source\PSoC4/cyfitter_cfg.c **** ********************************************************************************/
  17:Generated_Source\PSoC4/cyfitter_cfg.c **** 
  18:Generated_Source\PSoC4/cyfitter_cfg.c **** #include <string.h>
  19:Generated_Source\PSoC4/cyfitter_cfg.c **** #include "cytypes.h"
  20:Generated_Source\PSoC4/cyfitter_cfg.c **** #include "cydevice_trm.h"
  21:Generated_Source\PSoC4/cyfitter_cfg.c **** #include "cyfitter.h"
  22:Generated_Source\PSoC4/cyfitter_cfg.c **** #include "CyLib.h"
  23:Generated_Source\PSoC4/cyfitter_cfg.c **** #include "CyLFClk.h"
  24:Generated_Source\PSoC4/cyfitter_cfg.c **** #include "cyfitter_cfg.h"
  25:Generated_Source\PSoC4/cyfitter_cfg.c **** #include "cyapicallbacks.h"
  26:Generated_Source\PSoC4/cyfitter_cfg.c **** 
  27:Generated_Source\PSoC4/cyfitter_cfg.c **** 
  28:Generated_Source\PSoC4/cyfitter_cfg.c **** #if defined(__GNUC__) || defined(__ARMCC_VERSION)
  29:Generated_Source\PSoC4/cyfitter_cfg.c ****     #define CYPACKED 
  30:Generated_Source\PSoC4/cyfitter_cfg.c ****     #define CYPACKED_ATTR __attribute__ ((packed))
  31:Generated_Source\PSoC4/cyfitter_cfg.c ****     #define CYALIGNED __attribute__ ((aligned))
  32:Generated_Source\PSoC4/cyfitter_cfg.c ****     #define CY_CFG_UNUSED __attribute__ ((unused))
  33:Generated_Source\PSoC4/cyfitter_cfg.c ****     #ifndef CY_CFG_SECTION
ARM GAS  C:\Users\Feiyang\AppData\Local\Temp\ccPo2xg9.s 			page 2


  34:Generated_Source\PSoC4/cyfitter_cfg.c ****         #define CY_CFG_SECTION __attribute__ ((section(".psocinit")))
  35:Generated_Source\PSoC4/cyfitter_cfg.c ****     #endif
  36:Generated_Source\PSoC4/cyfitter_cfg.c ****     
  37:Generated_Source\PSoC4/cyfitter_cfg.c ****     #if defined(__ARMCC_VERSION)
  38:Generated_Source\PSoC4/cyfitter_cfg.c ****         #define CY_CFG_MEMORY_BARRIER() __memory_changed()
  39:Generated_Source\PSoC4/cyfitter_cfg.c ****     #else
  40:Generated_Source\PSoC4/cyfitter_cfg.c ****         #define CY_CFG_MEMORY_BARRIER() __sync_synchronize()
  41:Generated_Source\PSoC4/cyfitter_cfg.c ****     #endif
  42:Generated_Source\PSoC4/cyfitter_cfg.c ****     
  43:Generated_Source\PSoC4/cyfitter_cfg.c **** #elif defined(__ICCARM__)
  44:Generated_Source\PSoC4/cyfitter_cfg.c ****     #include <intrinsics.h>
  45:Generated_Source\PSoC4/cyfitter_cfg.c **** 
  46:Generated_Source\PSoC4/cyfitter_cfg.c ****     #define CYPACKED __packed
  47:Generated_Source\PSoC4/cyfitter_cfg.c ****     #define CYPACKED_ATTR 
  48:Generated_Source\PSoC4/cyfitter_cfg.c ****     #define CYALIGNED _Pragma("data_alignment=4")
  49:Generated_Source\PSoC4/cyfitter_cfg.c ****     #define CY_CFG_UNUSED _Pragma("diag_suppress=Pe177")
  50:Generated_Source\PSoC4/cyfitter_cfg.c ****     #define CY_CFG_SECTION _Pragma("location=\".psocinit\"")
  51:Generated_Source\PSoC4/cyfitter_cfg.c ****     
  52:Generated_Source\PSoC4/cyfitter_cfg.c ****     #define CY_CFG_MEMORY_BARRIER() __DMB()
  53:Generated_Source\PSoC4/cyfitter_cfg.c ****     
  54:Generated_Source\PSoC4/cyfitter_cfg.c **** #else
  55:Generated_Source\PSoC4/cyfitter_cfg.c ****     #error Unsupported toolchain
  56:Generated_Source\PSoC4/cyfitter_cfg.c **** #endif
  57:Generated_Source\PSoC4/cyfitter_cfg.c **** 
  58:Generated_Source\PSoC4/cyfitter_cfg.c **** 
  59:Generated_Source\PSoC4/cyfitter_cfg.c **** CY_CFG_UNUSED
  60:Generated_Source\PSoC4/cyfitter_cfg.c **** static void CYMEMZERO(void *s, size_t n);
  61:Generated_Source\PSoC4/cyfitter_cfg.c **** CY_CFG_UNUSED
  62:Generated_Source\PSoC4/cyfitter_cfg.c **** static void CYMEMZERO(void *s, size_t n)
  63:Generated_Source\PSoC4/cyfitter_cfg.c **** {
  64:Generated_Source\PSoC4/cyfitter_cfg.c **** 	(void)memset(s, 0, n);
  65:Generated_Source\PSoC4/cyfitter_cfg.c **** }
  66:Generated_Source\PSoC4/cyfitter_cfg.c **** CY_CFG_UNUSED
  67:Generated_Source\PSoC4/cyfitter_cfg.c **** static void CYCONFIGCPY(void *dest, const void *src, size_t n);
  68:Generated_Source\PSoC4/cyfitter_cfg.c **** CY_CFG_UNUSED
  69:Generated_Source\PSoC4/cyfitter_cfg.c **** static void CYCONFIGCPY(void *dest, const void *src, size_t n)
  70:Generated_Source\PSoC4/cyfitter_cfg.c **** {
  71:Generated_Source\PSoC4/cyfitter_cfg.c **** 	(void)memcpy(dest, src, n);
  72:Generated_Source\PSoC4/cyfitter_cfg.c **** }
  73:Generated_Source\PSoC4/cyfitter_cfg.c **** CY_CFG_UNUSED
  74:Generated_Source\PSoC4/cyfitter_cfg.c **** static void CYCONFIGCPYCODE(void *dest, const void *src, size_t n);
  75:Generated_Source\PSoC4/cyfitter_cfg.c **** CY_CFG_UNUSED
  76:Generated_Source\PSoC4/cyfitter_cfg.c **** static void CYCONFIGCPYCODE(void *dest, const void *src, size_t n)
  77:Generated_Source\PSoC4/cyfitter_cfg.c **** {
  78:Generated_Source\PSoC4/cyfitter_cfg.c **** 	(void)memcpy(dest, src, n);
  79:Generated_Source\PSoC4/cyfitter_cfg.c **** }
  80:Generated_Source\PSoC4/cyfitter_cfg.c **** 
  81:Generated_Source\PSoC4/cyfitter_cfg.c **** 
  82:Generated_Source\PSoC4/cyfitter_cfg.c **** 
  83:Generated_Source\PSoC4/cyfitter_cfg.c **** 
  84:Generated_Source\PSoC4/cyfitter_cfg.c **** /* Clock startup error codes                                                   */
  85:Generated_Source\PSoC4/cyfitter_cfg.c **** #define CYCLOCKSTART_NO_ERROR    0u
  86:Generated_Source\PSoC4/cyfitter_cfg.c **** #define CYCLOCKSTART_XTAL_ERROR  1u
  87:Generated_Source\PSoC4/cyfitter_cfg.c **** #define CYCLOCKSTART_32KHZ_ERROR 2u
  88:Generated_Source\PSoC4/cyfitter_cfg.c **** #define CYCLOCKSTART_PLL_ERROR   3u
  89:Generated_Source\PSoC4/cyfitter_cfg.c **** 
  90:Generated_Source\PSoC4/cyfitter_cfg.c **** 
ARM GAS  C:\Users\Feiyang\AppData\Local\Temp\ccPo2xg9.s 			page 3


  91:Generated_Source\PSoC4/cyfitter_cfg.c **** #ifdef CY_NEED_CYCLOCKSTARTUPERROR
  92:Generated_Source\PSoC4/cyfitter_cfg.c **** /*******************************************************************************
  93:Generated_Source\PSoC4/cyfitter_cfg.c **** * Function Name: CyClockStartupError
  94:Generated_Source\PSoC4/cyfitter_cfg.c **** ********************************************************************************
  95:Generated_Source\PSoC4/cyfitter_cfg.c **** * Summary:
  96:Generated_Source\PSoC4/cyfitter_cfg.c **** *  If an error is encountered during clock configuration (crystal startup error,
  97:Generated_Source\PSoC4/cyfitter_cfg.c **** *  PLL lock error, etc.), the system will end up here.  Unless reimplemented by
  98:Generated_Source\PSoC4/cyfitter_cfg.c **** *  the customer, this function will stop in an infinite loop.
  99:Generated_Source\PSoC4/cyfitter_cfg.c **** *
 100:Generated_Source\PSoC4/cyfitter_cfg.c **** * Parameters:
 101:Generated_Source\PSoC4/cyfitter_cfg.c **** *   void
 102:Generated_Source\PSoC4/cyfitter_cfg.c **** *
 103:Generated_Source\PSoC4/cyfitter_cfg.c **** * Return:
 104:Generated_Source\PSoC4/cyfitter_cfg.c **** *   void
 105:Generated_Source\PSoC4/cyfitter_cfg.c **** *
 106:Generated_Source\PSoC4/cyfitter_cfg.c **** *******************************************************************************/
 107:Generated_Source\PSoC4/cyfitter_cfg.c **** CY_CFG_UNUSED
 108:Generated_Source\PSoC4/cyfitter_cfg.c **** static void CyClockStartupError(uint8 errorCode);
 109:Generated_Source\PSoC4/cyfitter_cfg.c **** CY_CFG_UNUSED
 110:Generated_Source\PSoC4/cyfitter_cfg.c **** static void CyClockStartupError(uint8 errorCode)
 111:Generated_Source\PSoC4/cyfitter_cfg.c **** {
 112:Generated_Source\PSoC4/cyfitter_cfg.c ****     /* To remove the compiler warning if errorCode not used.                */
 113:Generated_Source\PSoC4/cyfitter_cfg.c ****     errorCode = errorCode;
 114:Generated_Source\PSoC4/cyfitter_cfg.c **** 
 115:Generated_Source\PSoC4/cyfitter_cfg.c ****     /* If we have a clock startup error (bad MHz crystal, PLL lock, etc.),  */
 116:Generated_Source\PSoC4/cyfitter_cfg.c ****     /* we will end up here to allow the customer to implement something to  */
 117:Generated_Source\PSoC4/cyfitter_cfg.c ****     /* deal with the clock condition.                                       */
 118:Generated_Source\PSoC4/cyfitter_cfg.c **** 
 119:Generated_Source\PSoC4/cyfitter_cfg.c **** #ifdef CY_CFG_CLOCK_STARTUP_ERROR_CALLBACK
 120:Generated_Source\PSoC4/cyfitter_cfg.c **** 	CY_CFG_Clock_Startup_ErrorCallback();
 121:Generated_Source\PSoC4/cyfitter_cfg.c **** #else
 122:Generated_Source\PSoC4/cyfitter_cfg.c **** 	/*  If not using CY_CFG_CLOCK_STARTUP_ERROR_CALLBACK, place your clock startup code here. */
 123:Generated_Source\PSoC4/cyfitter_cfg.c ****     /* `#START CyClockStartupError` */
 124:Generated_Source\PSoC4/cyfitter_cfg.c **** 
 125:Generated_Source\PSoC4/cyfitter_cfg.c **** 
 126:Generated_Source\PSoC4/cyfitter_cfg.c **** 
 127:Generated_Source\PSoC4/cyfitter_cfg.c ****     /* `#END` */
 128:Generated_Source\PSoC4/cyfitter_cfg.c **** 
 129:Generated_Source\PSoC4/cyfitter_cfg.c ****     /* If nothing else, stop here since the clocks have not started         */
 130:Generated_Source\PSoC4/cyfitter_cfg.c ****     /* correctly.                                                           */
 131:Generated_Source\PSoC4/cyfitter_cfg.c ****     while(1) {}
 132:Generated_Source\PSoC4/cyfitter_cfg.c **** #endif /* CY_CFG_CLOCK_STARTUP_ERROR_CALLBACK */ 
 133:Generated_Source\PSoC4/cyfitter_cfg.c **** }
 134:Generated_Source\PSoC4/cyfitter_cfg.c **** #endif
 135:Generated_Source\PSoC4/cyfitter_cfg.c **** 
 136:Generated_Source\PSoC4/cyfitter_cfg.c **** #define CY_CFG_BASE_ADDR_COUNT 8u
 137:Generated_Source\PSoC4/cyfitter_cfg.c **** CYPACKED typedef struct
 138:Generated_Source\PSoC4/cyfitter_cfg.c **** {
 139:Generated_Source\PSoC4/cyfitter_cfg.c **** 	uint8 offset;
 140:Generated_Source\PSoC4/cyfitter_cfg.c **** 	uint8 value;
 141:Generated_Source\PSoC4/cyfitter_cfg.c **** } CYPACKED_ATTR cy_cfg_addrvalue_t;
 142:Generated_Source\PSoC4/cyfitter_cfg.c **** 
 143:Generated_Source\PSoC4/cyfitter_cfg.c **** 
 144:Generated_Source\PSoC4/cyfitter_cfg.c **** 
 145:Generated_Source\PSoC4/cyfitter_cfg.c **** /*******************************************************************************
 146:Generated_Source\PSoC4/cyfitter_cfg.c **** * Function Name: cfg_write_bytes32
 147:Generated_Source\PSoC4/cyfitter_cfg.c **** ********************************************************************************
ARM GAS  C:\Users\Feiyang\AppData\Local\Temp\ccPo2xg9.s 			page 4


 148:Generated_Source\PSoC4/cyfitter_cfg.c **** * Summary:
 149:Generated_Source\PSoC4/cyfitter_cfg.c **** *  This function is used for setting up the chip configuration areas that
 150:Generated_Source\PSoC4/cyfitter_cfg.c **** *  contain relatively sparse data.
 151:Generated_Source\PSoC4/cyfitter_cfg.c **** *
 152:Generated_Source\PSoC4/cyfitter_cfg.c **** * Parameters:
 153:Generated_Source\PSoC4/cyfitter_cfg.c **** *   void
 154:Generated_Source\PSoC4/cyfitter_cfg.c **** *
 155:Generated_Source\PSoC4/cyfitter_cfg.c **** * Return:
 156:Generated_Source\PSoC4/cyfitter_cfg.c **** *   void
 157:Generated_Source\PSoC4/cyfitter_cfg.c **** *
 158:Generated_Source\PSoC4/cyfitter_cfg.c **** *******************************************************************************/
 159:Generated_Source\PSoC4/cyfitter_cfg.c **** static void cfg_write_bytes32(const uint32 addr_table[], const cy_cfg_addrvalue_t data_table[]);
 160:Generated_Source\PSoC4/cyfitter_cfg.c **** static void cfg_write_bytes32(const uint32 addr_table[], const cy_cfg_addrvalue_t data_table[])
 161:Generated_Source\PSoC4/cyfitter_cfg.c **** {
  25              		.loc 1 161 0
  26              		.cfi_startproc
  27              	.LVL0:
  28 0000 F0B5     		push	{r4, r5, r6, r7, lr}
  29              		.cfi_def_cfa_offset 20
  30              		.cfi_offset 4, -20
  31              		.cfi_offset 5, -16
  32              		.cfi_offset 6, -12
  33              		.cfi_offset 7, -8
  34              		.cfi_offset 14, -4
  35              	.LVL1:
 162:Generated_Source\PSoC4/cyfitter_cfg.c **** 	/* For 32-bit little-endian architectures */
 163:Generated_Source\PSoC4/cyfitter_cfg.c **** 	uint32 i, j = 0u;
  36              		.loc 1 163 0
  37 0002 0025     		mov	r5, #0
 164:Generated_Source\PSoC4/cyfitter_cfg.c **** 	for (i = 0u; i < CY_CFG_BASE_ADDR_COUNT; i++)
  38              		.loc 1 164 0
  39 0004 0027     		mov	r7, #0
  40 0006 11E0     		b	.L2
  41              	.LVL2:
  42              	.L5:
  43              	.LBB2:
 165:Generated_Source\PSoC4/cyfitter_cfg.c **** 	{
 166:Generated_Source\PSoC4/cyfitter_cfg.c **** 		uint32 baseAddr = addr_table[i];
  44              		.loc 1 166 0
  45 0008 BB00     		lsl	r3, r7, #2
  46 000a C658     		ldr	r6, [r0, r3]
  47              	.LVL3:
 167:Generated_Source\PSoC4/cyfitter_cfg.c **** 		uint8 count = (uint8)baseAddr;
  48              		.loc 1 167 0
  49 000c F3B2     		uxtb	r3, r6
  50              	.LVL4:
 168:Generated_Source\PSoC4/cyfitter_cfg.c **** 		baseAddr &= 0xFFFFFF00u;
  51              		.loc 1 168 0
  52 000e FF22     		mov	r2, #255
  53 0010 9643     		bic	r6, r2
  54              	.LVL5:
 169:Generated_Source\PSoC4/cyfitter_cfg.c **** 		while (count != 0u)
  55              		.loc 1 169 0
  56 0012 08E0     		b	.L3
  57              	.L4:
 170:Generated_Source\PSoC4/cyfitter_cfg.c **** 		{
 171:Generated_Source\PSoC4/cyfitter_cfg.c **** 			CY_SET_XTND_REG8((void CYFAR *)(baseAddr + data_table[j].offset), data_table[j].value);
ARM GAS  C:\Users\Feiyang\AppData\Local\Temp\ccPo2xg9.s 			page 5


  58              		.loc 1 171 0
  59 0014 6A00     		lsl	r2, r5, #1
  60 0016 8A18     		add	r2, r1, r2
  61 0018 1478     		ldrb	r4, [r2]
  62 001a A419     		add	r4, r4, r6
  63 001c 5278     		ldrb	r2, [r2, #1]
  64 001e 2270     		strb	r2, [r4]
 172:Generated_Source\PSoC4/cyfitter_cfg.c **** 			j++;
  65              		.loc 1 172 0
  66 0020 0135     		add	r5, r5, #1
  67              	.LVL6:
 173:Generated_Source\PSoC4/cyfitter_cfg.c **** 			count--;
  68              		.loc 1 173 0
  69 0022 013B     		sub	r3, r3, #1
  70              	.LVL7:
  71 0024 DBB2     		uxtb	r3, r3
  72              	.LVL8:
  73              	.L3:
 169:Generated_Source\PSoC4/cyfitter_cfg.c **** 		{
  74              		.loc 1 169 0
  75 0026 002B     		cmp	r3, #0
  76 0028 F4D1     		bne	.L4
  77              	.LBE2:
 164:Generated_Source\PSoC4/cyfitter_cfg.c **** 	{
  78              		.loc 1 164 0 discriminator 2
  79 002a 0137     		add	r7, r7, #1
  80              	.LVL9:
  81              	.L2:
 164:Generated_Source\PSoC4/cyfitter_cfg.c **** 	{
  82              		.loc 1 164 0 is_stmt 0 discriminator 1
  83 002c 072F     		cmp	r7, #7
  84 002e EBD9     		bls	.L5
 174:Generated_Source\PSoC4/cyfitter_cfg.c **** 		}
 175:Generated_Source\PSoC4/cyfitter_cfg.c **** 	}
 176:Generated_Source\PSoC4/cyfitter_cfg.c **** }
  85              		.loc 1 176 0 is_stmt 1
  86              		@ sp needed
  87              	.LVL10:
  88              	.LVL11:
  89 0030 F0BD     		pop	{r4, r5, r6, r7, pc}
  90              		.cfi_endproc
  91              	.LFE3:
  92              		.size	cfg_write_bytes32, .-cfg_write_bytes32
  93 0032 C046     		.section	.text.CYMEMZERO,"ax",%progbits
  94              		.align	2
  95              		.code	16
  96              		.thumb_func
  97              		.type	CYMEMZERO, %function
  98              	CYMEMZERO:
  99              	.LFB0:
  63:Generated_Source\PSoC4/cyfitter_cfg.c **** 	(void)memset(s, 0, n);
 100              		.loc 1 63 0
 101              		.cfi_startproc
 102              	.LVL12:
 103 0000 08B5     		push	{r3, lr}
 104              		.cfi_def_cfa_offset 8
 105              		.cfi_offset 3, -8
ARM GAS  C:\Users\Feiyang\AppData\Local\Temp\ccPo2xg9.s 			page 6


 106              		.cfi_offset 14, -4
 107 0002 0A1C     		mov	r2, r1
  64:Generated_Source\PSoC4/cyfitter_cfg.c **** }
 108              		.loc 1 64 0
 109 0004 0021     		mov	r1, #0
 110              	.LVL13:
 111 0006 FFF7FEFF 		bl	memset
 112              	.LVL14:
  65:Generated_Source\PSoC4/cyfitter_cfg.c **** CY_CFG_UNUSED
 113              		.loc 1 65 0
 114              		@ sp needed
 115 000a 08BD     		pop	{r3, pc}
 116              		.cfi_endproc
 117              	.LFE0:
 118              		.size	CYMEMZERO, .-CYMEMZERO
 119              		.section	.psocinit,"ax",%progbits
 120              		.align	2
 121              		.code	16
 122              		.thumb_func
 123              		.type	ClockSetup, %function
 124              	ClockSetup:
 125              	.LFB4:
 177:Generated_Source\PSoC4/cyfitter_cfg.c **** 
 178:Generated_Source\PSoC4/cyfitter_cfg.c **** 
 179:Generated_Source\PSoC4/cyfitter_cfg.c **** /*******************************************************************************
 180:Generated_Source\PSoC4/cyfitter_cfg.c **** * Function Name: ClockSetup
 181:Generated_Source\PSoC4/cyfitter_cfg.c **** ********************************************************************************
 182:Generated_Source\PSoC4/cyfitter_cfg.c **** *
 183:Generated_Source\PSoC4/cyfitter_cfg.c **** * Summary:
 184:Generated_Source\PSoC4/cyfitter_cfg.c **** *   Performs the initialization of all of the clocks in the device based on the
 185:Generated_Source\PSoC4/cyfitter_cfg.c **** *   settings in the Clock tab of the DWR.  This includes enabling the requested
 186:Generated_Source\PSoC4/cyfitter_cfg.c **** *   clocks and setting the necessary dividers to produce the desired frequency. 
 187:Generated_Source\PSoC4/cyfitter_cfg.c **** *
 188:Generated_Source\PSoC4/cyfitter_cfg.c **** * Parameters:
 189:Generated_Source\PSoC4/cyfitter_cfg.c **** *   void
 190:Generated_Source\PSoC4/cyfitter_cfg.c **** *
 191:Generated_Source\PSoC4/cyfitter_cfg.c **** * Return:
 192:Generated_Source\PSoC4/cyfitter_cfg.c **** *   void
 193:Generated_Source\PSoC4/cyfitter_cfg.c **** *
 194:Generated_Source\PSoC4/cyfitter_cfg.c **** *******************************************************************************/
 195:Generated_Source\PSoC4/cyfitter_cfg.c **** static void ClockSetup(void);
 196:Generated_Source\PSoC4/cyfitter_cfg.c **** CY_CFG_SECTION
 197:Generated_Source\PSoC4/cyfitter_cfg.c **** static void ClockSetup(void)
 198:Generated_Source\PSoC4/cyfitter_cfg.c **** {
 126              		.loc 1 198 0
 127              		.cfi_startproc
 128 0000 38B5     		push	{r3, r4, r5, lr}
 129              		.cfi_def_cfa_offset 16
 130              		.cfi_offset 3, -16
 131              		.cfi_offset 4, -12
 132              		.cfi_offset 5, -8
 133              		.cfi_offset 14, -4
 199:Generated_Source\PSoC4/cyfitter_cfg.c **** 	/* Enable HALF_EN before trimming for the flash accelerator. */
 200:Generated_Source\PSoC4/cyfitter_cfg.c **** 	CY_SET_REG32((void CYXDATA *)(CYREG_CLK_SELECT), (CY_GET_REG32((void *)CYREG_CLK_SELECT) | 0x00040
 134              		.loc 1 200 0
 135 0002 164C     		ldr	r4, .L8
 136 0004 2368     		ldr	r3, [r4]
ARM GAS  C:\Users\Feiyang\AppData\Local\Temp\ccPo2xg9.s 			page 7


 137 0006 8022     		mov	r2, #128
 138 0008 D202     		lsl	r2, r2, #11
 139 000a 1343     		orr	r3, r2
 140 000c 2360     		str	r3, [r4]
 201:Generated_Source\PSoC4/cyfitter_cfg.c **** 
 202:Generated_Source\PSoC4/cyfitter_cfg.c **** 	/* Setup and trim IMO based on desired frequency. */
 203:Generated_Source\PSoC4/cyfitter_cfg.c **** 	CySysClkWriteImoFreq(24u);
 141              		.loc 1 203 0
 142 000e 1820     		mov	r0, #24
 143 0010 FFF7FEFF 		bl	CySysClkWriteImoFreq
 144              	.LVL15:
 204:Generated_Source\PSoC4/cyfitter_cfg.c **** 
 205:Generated_Source\PSoC4/cyfitter_cfg.c **** 	/* Disable HALF_EN since it is not required at this IMO frequency. */
 206:Generated_Source\PSoC4/cyfitter_cfg.c **** 	CY_SET_REG32((void CYXDATA *)(CYREG_CLK_SELECT), (CY_GET_REG32((void *)CYREG_CLK_SELECT) & 0xFFFBF
 145              		.loc 1 206 0
 146 0014 2268     		ldr	r2, [r4]
 147 0016 124B     		ldr	r3, .L8+4
 148 0018 1340     		and	r3, r2
 149 001a 2360     		str	r3, [r4]
 207:Generated_Source\PSoC4/cyfitter_cfg.c **** 	/* CYDEV_CLK_ILO_CONFIG Starting address: CYDEV_CLK_ILO_CONFIG */
 208:Generated_Source\PSoC4/cyfitter_cfg.c **** 	CY_SET_XTND_REG32((void CYFAR *)(CYREG_CLK_ILO_CONFIG), 0x80000006u);
 150              		.loc 1 208 0
 151 001c 114A     		ldr	r2, .L8+8
 152 001e 124B     		ldr	r3, .L8+12
 153 0020 1A60     		str	r2, [r3]
 209:Generated_Source\PSoC4/cyfitter_cfg.c **** 
 210:Generated_Source\PSoC4/cyfitter_cfg.c **** 
 211:Generated_Source\PSoC4/cyfitter_cfg.c **** 	/* CYDEV_CLK_SELECT00 Starting address: CYDEV_CLK_SELECT00 */
 212:Generated_Source\PSoC4/cyfitter_cfg.c **** 	CY_SET_XTND_REG32((void CYFAR *)(CYREG_CLK_SELECT03), 0x00000020u);
 154              		.loc 1 212 0
 155 0022 2022     		mov	r2, #32
 156 0024 114B     		ldr	r3, .L8+16
 157 0026 1A60     		str	r2, [r3]
 213:Generated_Source\PSoC4/cyfitter_cfg.c **** 	CY_SET_XTND_REG32((void CYFAR *)(CYREG_CLK_SELECT12), 0x00000010u);
 158              		.loc 1 213 0
 159 0028 103A     		sub	r2, r2, #16
 160 002a 114B     		ldr	r3, .L8+20
 161 002c 1A60     		str	r2, [r3]
 214:Generated_Source\PSoC4/cyfitter_cfg.c **** 
 215:Generated_Source\PSoC4/cyfitter_cfg.c **** 	/* CYDEV_CLK_IMO_CONFIG Starting address: CYDEV_CLK_IMO_CONFIG */
 216:Generated_Source\PSoC4/cyfitter_cfg.c **** 	CY_SET_XTND_REG32((void CYFAR *)(CYREG_CLK_IMO_CONFIG), 0x80000000u);
 162              		.loc 1 216 0
 163 002e 8022     		mov	r2, #128
 164 0030 1206     		lsl	r2, r2, #24
 165 0032 104B     		ldr	r3, .L8+24
 166 0034 1A60     		str	r2, [r3]
 217:Generated_Source\PSoC4/cyfitter_cfg.c **** 
 218:Generated_Source\PSoC4/cyfitter_cfg.c **** 	/* CYDEV_CLK_SELECT Starting address: CYDEV_CLK_SELECT */
 219:Generated_Source\PSoC4/cyfitter_cfg.c **** 	CY_SET_XTND_REG32((void CYFAR *)(CYREG_CLK_SELECT), 0x00000000u);
 167              		.loc 1 219 0
 168 0036 0025     		mov	r5, #0
 169 0038 2560     		str	r5, [r4]
 220:Generated_Source\PSoC4/cyfitter_cfg.c **** 
 221:Generated_Source\PSoC4/cyfitter_cfg.c **** 	/* CYDEV_CLK_DIVIDER_A00 Starting address: CYDEV_CLK_DIVIDER_A00 */
 222:Generated_Source\PSoC4/cyfitter_cfg.c **** 	CY_SET_XTND_REG32((void CYFAR *)(CYREG_CLK_DIVIDER_A00), 0x8000000Cu);
 170              		.loc 1 222 0
 171 003a 0F4A     		ldr	r2, .L8+28
ARM GAS  C:\Users\Feiyang\AppData\Local\Temp\ccPo2xg9.s 			page 8


 172 003c 0F4B     		ldr	r3, .L8+32
 173 003e 1A60     		str	r2, [r3]
 223:Generated_Source\PSoC4/cyfitter_cfg.c **** 
 224:Generated_Source\PSoC4/cyfitter_cfg.c **** 	/* CYDEV_CLK_DIVIDER_B00 Starting address: CYDEV_CLK_DIVIDER_B00 */
 225:Generated_Source\PSoC4/cyfitter_cfg.c **** 	CY_SET_XTND_REG32((void CYFAR *)(CYREG_CLK_DIVIDER_B00), 0x80000010u);
 174              		.loc 1 225 0
 175 0040 0F4A     		ldr	r2, .L8+36
 176 0042 104B     		ldr	r3, .L8+40
 177 0044 1A60     		str	r2, [r3]
 226:Generated_Source\PSoC4/cyfitter_cfg.c **** 
 227:Generated_Source\PSoC4/cyfitter_cfg.c **** 	(void)CyIntSetVector(9u, &CySysWdtIsr);
 178              		.loc 1 227 0
 179 0046 0920     		mov	r0, #9
 180 0048 0F49     		ldr	r1, .L8+44
 181 004a FFF7FEFF 		bl	CyIntSetVector
 182              	.LVL16:
 228:Generated_Source\PSoC4/cyfitter_cfg.c **** 	CyIntEnable(9u);
 183              		.loc 1 228 0
 184 004e 0920     		mov	r0, #9
 185 0050 FFF7FEFF 		bl	CyIntEnable
 186              	.LVL17:
 229:Generated_Source\PSoC4/cyfitter_cfg.c **** 	CY_SET_XTND_REG32((void CYFAR *)(CYREG_WDT_CONFIG), 0x00000000u);
 187              		.loc 1 229 0
 188 0054 0D4B     		ldr	r3, .L8+48
 189 0056 1D60     		str	r5, [r3]
 230:Generated_Source\PSoC4/cyfitter_cfg.c **** }
 190              		.loc 1 230 0
 191              		@ sp needed
 192 0058 38BD     		pop	{r3, r4, r5, pc}
 193              	.L9:
 194 005a C046     		.align	2
 195              	.L8:
 196 005c 00010B40 		.word	1074462976
 197 0060 FFFFFBFF 		.word	-262145
 198 0064 06000080 		.word	-2147483642
 199 0068 04010B40 		.word	1074462980
 200 006c 0C020240 		.word	1073873420
 201 0070 30020240 		.word	1073873456
 202 0074 08010B40 		.word	1074462984
 203 0078 0C000080 		.word	-2147483636
 204 007c 00000240 		.word	1073872896
 205 0080 10000080 		.word	-2147483632
 206 0084 40000240 		.word	1073872960
 207 0088 00000000 		.word	CySysWdtIsr
 208 008c 0C020B40 		.word	1074463244
 209              		.cfi_endproc
 210              	.LFE4:
 211              		.size	ClockSetup, .-ClockSetup
 212              		.align	2
 213              		.global	cyfitter_cfg
 214              		.code	16
 215              		.thumb_func
 216              		.type	cyfitter_cfg, %function
 217              	cyfitter_cfg:
 218              	.LFB6:
 231:Generated_Source\PSoC4/cyfitter_cfg.c **** 
 232:Generated_Source\PSoC4/cyfitter_cfg.c **** 
ARM GAS  C:\Users\Feiyang\AppData\Local\Temp\ccPo2xg9.s 			page 9


 233:Generated_Source\PSoC4/cyfitter_cfg.c **** /* Analog API Functions */
 234:Generated_Source\PSoC4/cyfitter_cfg.c **** 
 235:Generated_Source\PSoC4/cyfitter_cfg.c **** 
 236:Generated_Source\PSoC4/cyfitter_cfg.c **** /*******************************************************************************
 237:Generated_Source\PSoC4/cyfitter_cfg.c **** * Function Name: AnalogSetDefault
 238:Generated_Source\PSoC4/cyfitter_cfg.c **** ********************************************************************************
 239:Generated_Source\PSoC4/cyfitter_cfg.c **** *
 240:Generated_Source\PSoC4/cyfitter_cfg.c **** * Summary:
 241:Generated_Source\PSoC4/cyfitter_cfg.c **** *  Sets up the analog portions of the chip to default values based on chip
 242:Generated_Source\PSoC4/cyfitter_cfg.c **** *  configuration options from the project.
 243:Generated_Source\PSoC4/cyfitter_cfg.c **** *
 244:Generated_Source\PSoC4/cyfitter_cfg.c **** * Parameters:
 245:Generated_Source\PSoC4/cyfitter_cfg.c **** *  void
 246:Generated_Source\PSoC4/cyfitter_cfg.c **** *
 247:Generated_Source\PSoC4/cyfitter_cfg.c **** * Return:
 248:Generated_Source\PSoC4/cyfitter_cfg.c **** *  void
 249:Generated_Source\PSoC4/cyfitter_cfg.c **** *
 250:Generated_Source\PSoC4/cyfitter_cfg.c **** *******************************************************************************/
 251:Generated_Source\PSoC4/cyfitter_cfg.c **** static void AnalogSetDefault(void);
 252:Generated_Source\PSoC4/cyfitter_cfg.c **** static void AnalogSetDefault(void)
 253:Generated_Source\PSoC4/cyfitter_cfg.c **** {
 254:Generated_Source\PSoC4/cyfitter_cfg.c **** }
 255:Generated_Source\PSoC4/cyfitter_cfg.c **** 
 256:Generated_Source\PSoC4/cyfitter_cfg.c **** #define CY_AMUX_UNUSED CYREG_CM0_ROM_DWT
 257:Generated_Source\PSoC4/cyfitter_cfg.c **** 
 258:Generated_Source\PSoC4/cyfitter_cfg.c **** 
 259:Generated_Source\PSoC4/cyfitter_cfg.c **** /*******************************************************************************
 260:Generated_Source\PSoC4/cyfitter_cfg.c **** * Function Name: cyfitter_cfg
 261:Generated_Source\PSoC4/cyfitter_cfg.c **** ********************************************************************************
 262:Generated_Source\PSoC4/cyfitter_cfg.c **** * Summary:
 263:Generated_Source\PSoC4/cyfitter_cfg.c **** *  This function is called by the start-up code for the selected device. It
 264:Generated_Source\PSoC4/cyfitter_cfg.c **** *  performs all of the necessary device configuration based on the design
 265:Generated_Source\PSoC4/cyfitter_cfg.c **** *  settings.  This includes settings from the Design Wide Resources (DWR) such
 266:Generated_Source\PSoC4/cyfitter_cfg.c **** *  as Clocks and Pins as well as any component configuration that is necessary.
 267:Generated_Source\PSoC4/cyfitter_cfg.c **** *
 268:Generated_Source\PSoC4/cyfitter_cfg.c **** * Parameters:  
 269:Generated_Source\PSoC4/cyfitter_cfg.c **** *   void
 270:Generated_Source\PSoC4/cyfitter_cfg.c **** *
 271:Generated_Source\PSoC4/cyfitter_cfg.c **** * Return:
 272:Generated_Source\PSoC4/cyfitter_cfg.c **** *   void
 273:Generated_Source\PSoC4/cyfitter_cfg.c **** *
 274:Generated_Source\PSoC4/cyfitter_cfg.c **** *******************************************************************************/
 275:Generated_Source\PSoC4/cyfitter_cfg.c **** CY_CFG_SECTION
 276:Generated_Source\PSoC4/cyfitter_cfg.c **** void cyfitter_cfg(void)
 277:Generated_Source\PSoC4/cyfitter_cfg.c **** {
 219              		.loc 1 277 0
 220              		.cfi_startproc
 221 0090 10B5     		push	{r4, lr}
 222              		.cfi_def_cfa_offset 8
 223              		.cfi_offset 4, -8
 224              		.cfi_offset 14, -4
 278:Generated_Source\PSoC4/cyfitter_cfg.c **** 	/* Disable interrupts by default. Let user enable if/when they want. */
 279:Generated_Source\PSoC4/cyfitter_cfg.c **** 	CyGlobalIntDisable;
 225              		.loc 1 279 0
 226              	@ 279 "Generated_Source\PSoC4\cyfitter_cfg.c" 1
 227 0092 72B6     		CPSID   i
 228              	@ 0 "" 2
ARM GAS  C:\Users\Feiyang\AppData\Local\Temp\ccPo2xg9.s 			page 10


 280:Generated_Source\PSoC4/cyfitter_cfg.c **** 
 281:Generated_Source\PSoC4/cyfitter_cfg.c **** 	/* Enable the clock in the interrupt controller for the routed interrupts */
 282:Generated_Source\PSoC4/cyfitter_cfg.c **** 	CY_SET_REG8((void *)CYREG_UDB_UDBIF_INT_CLK_CTL, 0x01u);
 229              		.loc 1 282 0
 230              		.code	16
 231 0094 0122     		mov	r2, #1
 232 0096 2C4B     		ldr	r3, .L13
 233 0098 1A70     		strb	r2, [r3]
 234              	.LVL18:
 235              	.LBB3:
 283:Generated_Source\PSoC4/cyfitter_cfg.c **** 	{
 284:Generated_Source\PSoC4/cyfitter_cfg.c **** 		static const uint32 CYCODE cy_cfg_addr_table[] = {
 285:Generated_Source\PSoC4/cyfitter_cfg.c **** 			0x400F0002u, /* Base address: 0x400F0000 Count: 2 */
 286:Generated_Source\PSoC4/cyfitter_cfg.c **** 			0x400F3061u, /* Base address: 0x400F3000 Count: 97 */
 287:Generated_Source\PSoC4/cyfitter_cfg.c **** 			0x400F3134u, /* Base address: 0x400F3100 Count: 52 */
 288:Generated_Source\PSoC4/cyfitter_cfg.c **** 			0x400F3261u, /* Base address: 0x400F3200 Count: 97 */
 289:Generated_Source\PSoC4/cyfitter_cfg.c **** 			0x400F334Du, /* Base address: 0x400F3300 Count: 77 */
 290:Generated_Source\PSoC4/cyfitter_cfg.c **** 			0x400F4004u, /* Base address: 0x400F4000 Count: 4 */
 291:Generated_Source\PSoC4/cyfitter_cfg.c **** 			0x400F4103u, /* Base address: 0x400F4100 Count: 3 */
 292:Generated_Source\PSoC4/cyfitter_cfg.c **** 			0x400F6002u, /* Base address: 0x400F6000 Count: 2 */
 293:Generated_Source\PSoC4/cyfitter_cfg.c **** 		};
 294:Generated_Source\PSoC4/cyfitter_cfg.c **** 
 295:Generated_Source\PSoC4/cyfitter_cfg.c **** 		static const cy_cfg_addrvalue_t CYCODE cy_cfg_data_table[] = {
 296:Generated_Source\PSoC4/cyfitter_cfg.c **** 			{0x80u, 0x76u},
 297:Generated_Source\PSoC4/cyfitter_cfg.c **** 			{0x82u, 0x38u},
 298:Generated_Source\PSoC4/cyfitter_cfg.c **** 			{0x00u, 0x03u},
 299:Generated_Source\PSoC4/cyfitter_cfg.c **** 			{0x04u, 0x54u},
 300:Generated_Source\PSoC4/cyfitter_cfg.c **** 			{0x06u, 0xA8u},
 301:Generated_Source\PSoC4/cyfitter_cfg.c **** 			{0x0Au, 0x03u},
 302:Generated_Source\PSoC4/cyfitter_cfg.c **** 			{0x0Cu, 0xC1u},
 303:Generated_Source\PSoC4/cyfitter_cfg.c **** 			{0x0Eu, 0x32u},
 304:Generated_Source\PSoC4/cyfitter_cfg.c **** 			{0x10u, 0x03u},
 305:Generated_Source\PSoC4/cyfitter_cfg.c **** 			{0x14u, 0x03u},
 306:Generated_Source\PSoC4/cyfitter_cfg.c **** 			{0x18u, 0xA8u},
 307:Generated_Source\PSoC4/cyfitter_cfg.c **** 			{0x1Au, 0x54u},
 308:Generated_Source\PSoC4/cyfitter_cfg.c **** 			{0x1Cu, 0xCDu},
 309:Generated_Source\PSoC4/cyfitter_cfg.c **** 			{0x1Eu, 0x32u},
 310:Generated_Source\PSoC4/cyfitter_cfg.c **** 			{0x20u, 0x3Fu},
 311:Generated_Source\PSoC4/cyfitter_cfg.c **** 			{0x22u, 0xC0u},
 312:Generated_Source\PSoC4/cyfitter_cfg.c **** 			{0x24u, 0xCDu},
 313:Generated_Source\PSoC4/cyfitter_cfg.c **** 			{0x26u, 0x32u},
 314:Generated_Source\PSoC4/cyfitter_cfg.c **** 			{0x28u, 0x0Du},
 315:Generated_Source\PSoC4/cyfitter_cfg.c **** 			{0x2Au, 0xF2u},
 316:Generated_Source\PSoC4/cyfitter_cfg.c **** 			{0x30u, 0x03u},
 317:Generated_Source\PSoC4/cyfitter_cfg.c **** 			{0x34u, 0xFCu},
 318:Generated_Source\PSoC4/cyfitter_cfg.c **** 			{0x40u, 0x05u},
 319:Generated_Source\PSoC4/cyfitter_cfg.c **** 			{0x44u, 0x22u},
 320:Generated_Source\PSoC4/cyfitter_cfg.c **** 			{0x49u, 0xFFu},
 321:Generated_Source\PSoC4/cyfitter_cfg.c **** 			{0x4Au, 0xFFu},
 322:Generated_Source\PSoC4/cyfitter_cfg.c **** 			{0x4Bu, 0xFFu},
 323:Generated_Source\PSoC4/cyfitter_cfg.c **** 			{0x4Cu, 0x02u},
 324:Generated_Source\PSoC4/cyfitter_cfg.c **** 			{0x4Du, 0x0Cu},
 325:Generated_Source\PSoC4/cyfitter_cfg.c **** 			{0x4Eu, 0xF8u},
 326:Generated_Source\PSoC4/cyfitter_cfg.c **** 			{0x50u, 0x02u},
 327:Generated_Source\PSoC4/cyfitter_cfg.c **** 			{0x56u, 0x02u},
 328:Generated_Source\PSoC4/cyfitter_cfg.c **** 			{0x57u, 0x13u},
 329:Generated_Source\PSoC4/cyfitter_cfg.c **** 			{0x58u, 0x04u},
ARM GAS  C:\Users\Feiyang\AppData\Local\Temp\ccPo2xg9.s 			page 11


 330:Generated_Source\PSoC4/cyfitter_cfg.c **** 			{0x5Au, 0x08u},
 331:Generated_Source\PSoC4/cyfitter_cfg.c **** 			{0x5Bu, 0x04u},
 332:Generated_Source\PSoC4/cyfitter_cfg.c **** 			{0x5Fu, 0x01u},
 333:Generated_Source\PSoC4/cyfitter_cfg.c **** 			{0x62u, 0x48u},
 334:Generated_Source\PSoC4/cyfitter_cfg.c **** 			{0x63u, 0xA1u},
 335:Generated_Source\PSoC4/cyfitter_cfg.c **** 			{0x68u, 0xF0u},
 336:Generated_Source\PSoC4/cyfitter_cfg.c **** 			{0x6Au, 0xF0u},
 337:Generated_Source\PSoC4/cyfitter_cfg.c **** 			{0x6Cu, 0xF0u},
 338:Generated_Source\PSoC4/cyfitter_cfg.c **** 			{0x6Eu, 0xF0u},
 339:Generated_Source\PSoC4/cyfitter_cfg.c **** 			{0x83u, 0x04u},
 340:Generated_Source\PSoC4/cyfitter_cfg.c **** 			{0x85u, 0x10u},
 341:Generated_Source\PSoC4/cyfitter_cfg.c **** 			{0x88u, 0x10u},
 342:Generated_Source\PSoC4/cyfitter_cfg.c **** 			{0x89u, 0x08u},
 343:Generated_Source\PSoC4/cyfitter_cfg.c **** 			{0x8Au, 0x04u},
 344:Generated_Source\PSoC4/cyfitter_cfg.c **** 			{0x8Du, 0x40u},
 345:Generated_Source\PSoC4/cyfitter_cfg.c **** 			{0x90u, 0x14u},
 346:Generated_Source\PSoC4/cyfitter_cfg.c **** 			{0x91u, 0x3Cu},
 347:Generated_Source\PSoC4/cyfitter_cfg.c **** 			{0x93u, 0x81u},
 348:Generated_Source\PSoC4/cyfitter_cfg.c **** 			{0x94u, 0x02u},
 349:Generated_Source\PSoC4/cyfitter_cfg.c **** 			{0x95u, 0xBFu},
 350:Generated_Source\PSoC4/cyfitter_cfg.c **** 			{0x96u, 0x01u},
 351:Generated_Source\PSoC4/cyfitter_cfg.c **** 			{0x98u, 0x01u},
 352:Generated_Source\PSoC4/cyfitter_cfg.c **** 			{0x99u, 0x40u},
 353:Generated_Source\PSoC4/cyfitter_cfg.c **** 			{0x9Au, 0x02u},
 354:Generated_Source\PSoC4/cyfitter_cfg.c **** 			{0x9Bu, 0x18u},
 355:Generated_Source\PSoC4/cyfitter_cfg.c **** 			{0x9Du, 0xBCu},
 356:Generated_Source\PSoC4/cyfitter_cfg.c **** 			{0x9Fu, 0x02u},
 357:Generated_Source\PSoC4/cyfitter_cfg.c **** 			{0xA2u, 0x0Cu},
 358:Generated_Source\PSoC4/cyfitter_cfg.c **** 			{0xA4u, 0x14u},
 359:Generated_Source\PSoC4/cyfitter_cfg.c **** 			{0xA5u, 0x04u},
 360:Generated_Source\PSoC4/cyfitter_cfg.c **** 			{0xA9u, 0xA7u},
 361:Generated_Source\PSoC4/cyfitter_cfg.c **** 			{0xABu, 0x18u},
 362:Generated_Source\PSoC4/cyfitter_cfg.c **** 			{0xACu, 0x14u},
 363:Generated_Source\PSoC4/cyfitter_cfg.c **** 			{0xAFu, 0x83u},
 364:Generated_Source\PSoC4/cyfitter_cfg.c **** 			{0xB0u, 0x10u},
 365:Generated_Source\PSoC4/cyfitter_cfg.c **** 			{0xB1u, 0x1Fu},
 366:Generated_Source\PSoC4/cyfitter_cfg.c **** 			{0xB2u, 0x04u},
 367:Generated_Source\PSoC4/cyfitter_cfg.c **** 			{0xB3u, 0x60u},
 368:Generated_Source\PSoC4/cyfitter_cfg.c **** 			{0xB4u, 0x03u},
 369:Generated_Source\PSoC4/cyfitter_cfg.c **** 			{0xB5u, 0x98u},
 370:Generated_Source\PSoC4/cyfitter_cfg.c **** 			{0xB6u, 0x08u},
 371:Generated_Source\PSoC4/cyfitter_cfg.c **** 			{0xB9u, 0x08u},
 372:Generated_Source\PSoC4/cyfitter_cfg.c **** 			{0xBBu, 0x02u},
 373:Generated_Source\PSoC4/cyfitter_cfg.c **** 			{0xBEu, 0x11u},
 374:Generated_Source\PSoC4/cyfitter_cfg.c **** 			{0xC0u, 0x05u},
 375:Generated_Source\PSoC4/cyfitter_cfg.c **** 			{0xC4u, 0x22u},
 376:Generated_Source\PSoC4/cyfitter_cfg.c **** 			{0xC5u, 0x0Au},
 377:Generated_Source\PSoC4/cyfitter_cfg.c **** 			{0xC8u, 0x01u},
 378:Generated_Source\PSoC4/cyfitter_cfg.c **** 			{0xC9u, 0xFFu},
 379:Generated_Source\PSoC4/cyfitter_cfg.c **** 			{0xCAu, 0xFFu},
 380:Generated_Source\PSoC4/cyfitter_cfg.c **** 			{0xCBu, 0xFFu},
 381:Generated_Source\PSoC4/cyfitter_cfg.c **** 			{0xCCu, 0x03u},
 382:Generated_Source\PSoC4/cyfitter_cfg.c **** 			{0xCDu, 0x0Cu},
 383:Generated_Source\PSoC4/cyfitter_cfg.c **** 			{0xCEu, 0xF4u},
 384:Generated_Source\PSoC4/cyfitter_cfg.c **** 			{0xD8u, 0x04u},
 385:Generated_Source\PSoC4/cyfitter_cfg.c **** 			{0xD9u, 0x04u},
 386:Generated_Source\PSoC4/cyfitter_cfg.c **** 			{0xDAu, 0x08u},
ARM GAS  C:\Users\Feiyang\AppData\Local\Temp\ccPo2xg9.s 			page 12


 387:Generated_Source\PSoC4/cyfitter_cfg.c **** 			{0xDBu, 0x04u},
 388:Generated_Source\PSoC4/cyfitter_cfg.c **** 			{0xDFu, 0x01u},
 389:Generated_Source\PSoC4/cyfitter_cfg.c **** 			{0xE2u, 0x48u},
 390:Generated_Source\PSoC4/cyfitter_cfg.c **** 			{0xE3u, 0xA1u},
 391:Generated_Source\PSoC4/cyfitter_cfg.c **** 			{0xE8u, 0xF0u},
 392:Generated_Source\PSoC4/cyfitter_cfg.c **** 			{0xEAu, 0xF0u},
 393:Generated_Source\PSoC4/cyfitter_cfg.c **** 			{0xECu, 0xF0u},
 394:Generated_Source\PSoC4/cyfitter_cfg.c **** 			{0xEEu, 0xF0u},
 395:Generated_Source\PSoC4/cyfitter_cfg.c **** 			{0x00u, 0x08u},
 396:Generated_Source\PSoC4/cyfitter_cfg.c **** 			{0x01u, 0x60u},
 397:Generated_Source\PSoC4/cyfitter_cfg.c **** 			{0x03u, 0x40u},
 398:Generated_Source\PSoC4/cyfitter_cfg.c **** 			{0x05u, 0x30u},
 399:Generated_Source\PSoC4/cyfitter_cfg.c **** 			{0x08u, 0x40u},
 400:Generated_Source\PSoC4/cyfitter_cfg.c **** 			{0x09u, 0x08u},
 401:Generated_Source\PSoC4/cyfitter_cfg.c **** 			{0x0Au, 0x44u},
 402:Generated_Source\PSoC4/cyfitter_cfg.c **** 			{0x0Cu, 0x01u},
 403:Generated_Source\PSoC4/cyfitter_cfg.c **** 			{0x0Eu, 0x50u},
 404:Generated_Source\PSoC4/cyfitter_cfg.c **** 			{0x0Fu, 0x08u},
 405:Generated_Source\PSoC4/cyfitter_cfg.c **** 			{0x10u, 0xA0u},
 406:Generated_Source\PSoC4/cyfitter_cfg.c **** 			{0x12u, 0x08u},
 407:Generated_Source\PSoC4/cyfitter_cfg.c **** 			{0x14u, 0x80u},
 408:Generated_Source\PSoC4/cyfitter_cfg.c **** 			{0x15u, 0x08u},
 409:Generated_Source\PSoC4/cyfitter_cfg.c **** 			{0x17u, 0x48u},
 410:Generated_Source\PSoC4/cyfitter_cfg.c **** 			{0x1Au, 0x04u},
 411:Generated_Source\PSoC4/cyfitter_cfg.c **** 			{0x1Bu, 0x03u},
 412:Generated_Source\PSoC4/cyfitter_cfg.c **** 			{0x1Du, 0x21u},
 413:Generated_Source\PSoC4/cyfitter_cfg.c **** 			{0x1Eu, 0x11u},
 414:Generated_Source\PSoC4/cyfitter_cfg.c **** 			{0x25u, 0x10u},
 415:Generated_Source\PSoC4/cyfitter_cfg.c **** 			{0x26u, 0x08u},
 416:Generated_Source\PSoC4/cyfitter_cfg.c **** 			{0x27u, 0x50u},
 417:Generated_Source\PSoC4/cyfitter_cfg.c **** 			{0x2Du, 0xA0u},
 418:Generated_Source\PSoC4/cyfitter_cfg.c **** 			{0x2Fu, 0x10u},
 419:Generated_Source\PSoC4/cyfitter_cfg.c **** 			{0x34u, 0x01u},
 420:Generated_Source\PSoC4/cyfitter_cfg.c **** 			{0x37u, 0x58u},
 421:Generated_Source\PSoC4/cyfitter_cfg.c **** 			{0x3Eu, 0x09u},
 422:Generated_Source\PSoC4/cyfitter_cfg.c **** 			{0x3Fu, 0x50u},
 423:Generated_Source\PSoC4/cyfitter_cfg.c **** 			{0x41u, 0x20u},
 424:Generated_Source\PSoC4/cyfitter_cfg.c **** 			{0x45u, 0x20u},
 425:Generated_Source\PSoC4/cyfitter_cfg.c **** 			{0x48u, 0x02u},
 426:Generated_Source\PSoC4/cyfitter_cfg.c **** 			{0x4Cu, 0x02u},
 427:Generated_Source\PSoC4/cyfitter_cfg.c **** 			{0x4Fu, 0x08u},
 428:Generated_Source\PSoC4/cyfitter_cfg.c **** 			{0x59u, 0x01u},
 429:Generated_Source\PSoC4/cyfitter_cfg.c **** 			{0x68u, 0xA0u},
 430:Generated_Source\PSoC4/cyfitter_cfg.c **** 			{0x69u, 0x54u},
 431:Generated_Source\PSoC4/cyfitter_cfg.c **** 			{0x6Cu, 0x02u},
 432:Generated_Source\PSoC4/cyfitter_cfg.c **** 			{0x71u, 0x04u},
 433:Generated_Source\PSoC4/cyfitter_cfg.c **** 			{0x72u, 0x08u},
 434:Generated_Source\PSoC4/cyfitter_cfg.c **** 			{0x73u, 0x50u},
 435:Generated_Source\PSoC4/cyfitter_cfg.c **** 			{0x7Bu, 0x01u},
 436:Generated_Source\PSoC4/cyfitter_cfg.c **** 			{0x7Fu, 0x02u},
 437:Generated_Source\PSoC4/cyfitter_cfg.c **** 			{0xC0u, 0x4Fu},
 438:Generated_Source\PSoC4/cyfitter_cfg.c **** 			{0xC2u, 0x7Fu},
 439:Generated_Source\PSoC4/cyfitter_cfg.c **** 			{0xC4u, 0xBEu},
 440:Generated_Source\PSoC4/cyfitter_cfg.c **** 			{0xCAu, 0x70u},
 441:Generated_Source\PSoC4/cyfitter_cfg.c **** 			{0xCCu, 0xF0u},
 442:Generated_Source\PSoC4/cyfitter_cfg.c **** 			{0xCEu, 0xF0u},
 443:Generated_Source\PSoC4/cyfitter_cfg.c **** 			{0xD0u, 0x24u},
ARM GAS  C:\Users\Feiyang\AppData\Local\Temp\ccPo2xg9.s 			page 13


 444:Generated_Source\PSoC4/cyfitter_cfg.c **** 			{0xD2u, 0x18u},
 445:Generated_Source\PSoC4/cyfitter_cfg.c **** 			{0xD6u, 0x01u},
 446:Generated_Source\PSoC4/cyfitter_cfg.c **** 			{0xDEu, 0x18u},
 447:Generated_Source\PSoC4/cyfitter_cfg.c **** 			{0x00u, 0xC3u},
 448:Generated_Source\PSoC4/cyfitter_cfg.c **** 			{0x03u, 0x01u},
 449:Generated_Source\PSoC4/cyfitter_cfg.c **** 			{0x04u, 0x08u},
 450:Generated_Source\PSoC4/cyfitter_cfg.c **** 			{0x07u, 0x02u},
 451:Generated_Source\PSoC4/cyfitter_cfg.c **** 			{0x08u, 0xE7u},
 452:Generated_Source\PSoC4/cyfitter_cfg.c **** 			{0x0Au, 0x18u},
 453:Generated_Source\PSoC4/cyfitter_cfg.c **** 			{0x0Bu, 0x02u},
 454:Generated_Source\PSoC4/cyfitter_cfg.c **** 			{0x0Eu, 0xC7u},
 455:Generated_Source\PSoC4/cyfitter_cfg.c **** 			{0x10u, 0xD8u},
 456:Generated_Source\PSoC4/cyfitter_cfg.c **** 			{0x12u, 0x27u},
 457:Generated_Source\PSoC4/cyfitter_cfg.c **** 			{0x14u, 0xFFu},
 458:Generated_Source\PSoC4/cyfitter_cfg.c **** 			{0x18u, 0x82u},
 459:Generated_Source\PSoC4/cyfitter_cfg.c **** 			{0x20u, 0x41u},
 460:Generated_Source\PSoC4/cyfitter_cfg.c **** 			{0x26u, 0x18u},
 461:Generated_Source\PSoC4/cyfitter_cfg.c **** 			{0x28u, 0x10u},
 462:Generated_Source\PSoC4/cyfitter_cfg.c **** 			{0x2Cu, 0x18u},
 463:Generated_Source\PSoC4/cyfitter_cfg.c **** 			{0x2Eu, 0xE7u},
 464:Generated_Source\PSoC4/cyfitter_cfg.c **** 			{0x2Fu, 0x01u},
 465:Generated_Source\PSoC4/cyfitter_cfg.c **** 			{0x30u, 0x1Cu},
 466:Generated_Source\PSoC4/cyfitter_cfg.c **** 			{0x32u, 0x03u},
 467:Generated_Source\PSoC4/cyfitter_cfg.c **** 			{0x34u, 0xD8u},
 468:Generated_Source\PSoC4/cyfitter_cfg.c **** 			{0x35u, 0x01u},
 469:Generated_Source\PSoC4/cyfitter_cfg.c **** 			{0x36u, 0x20u},
 470:Generated_Source\PSoC4/cyfitter_cfg.c **** 			{0x37u, 0x02u},
 471:Generated_Source\PSoC4/cyfitter_cfg.c **** 			{0x38u, 0x80u},
 472:Generated_Source\PSoC4/cyfitter_cfg.c **** 			{0x3Au, 0x22u},
 473:Generated_Source\PSoC4/cyfitter_cfg.c **** 			{0x3Fu, 0x50u},
 474:Generated_Source\PSoC4/cyfitter_cfg.c **** 			{0x40u, 0x25u},
 475:Generated_Source\PSoC4/cyfitter_cfg.c **** 			{0x41u, 0x03u},
 476:Generated_Source\PSoC4/cyfitter_cfg.c **** 			{0x42u, 0x04u},
 477:Generated_Source\PSoC4/cyfitter_cfg.c **** 			{0x44u, 0x06u},
 478:Generated_Source\PSoC4/cyfitter_cfg.c **** 			{0x45u, 0x0Cu},
 479:Generated_Source\PSoC4/cyfitter_cfg.c **** 			{0x47u, 0xE0u},
 480:Generated_Source\PSoC4/cyfitter_cfg.c **** 			{0x48u, 0x21u},
 481:Generated_Source\PSoC4/cyfitter_cfg.c **** 			{0x49u, 0xFFu},
 482:Generated_Source\PSoC4/cyfitter_cfg.c **** 			{0x4Au, 0xFFu},
 483:Generated_Source\PSoC4/cyfitter_cfg.c **** 			{0x4Bu, 0xFFu},
 484:Generated_Source\PSoC4/cyfitter_cfg.c **** 			{0x4Cu, 0x62u},
 485:Generated_Source\PSoC4/cyfitter_cfg.c **** 			{0x4Du, 0xA0u},
 486:Generated_Source\PSoC4/cyfitter_cfg.c **** 			{0x4Eu, 0xF0u},
 487:Generated_Source\PSoC4/cyfitter_cfg.c **** 			{0x4Fu, 0x41u},
 488:Generated_Source\PSoC4/cyfitter_cfg.c **** 			{0x50u, 0x0Cu},
 489:Generated_Source\PSoC4/cyfitter_cfg.c **** 			{0x54u, 0x18u},
 490:Generated_Source\PSoC4/cyfitter_cfg.c **** 			{0x56u, 0x04u},
 491:Generated_Source\PSoC4/cyfitter_cfg.c **** 			{0x58u, 0x04u},
 492:Generated_Source\PSoC4/cyfitter_cfg.c **** 			{0x59u, 0x04u},
 493:Generated_Source\PSoC4/cyfitter_cfg.c **** 			{0x5Au, 0x04u},
 494:Generated_Source\PSoC4/cyfitter_cfg.c **** 			{0x5Bu, 0x04u},
 495:Generated_Source\PSoC4/cyfitter_cfg.c **** 			{0x5Fu, 0x01u},
 496:Generated_Source\PSoC4/cyfitter_cfg.c **** 			{0x66u, 0x40u},
 497:Generated_Source\PSoC4/cyfitter_cfg.c **** 			{0x67u, 0x02u},
 498:Generated_Source\PSoC4/cyfitter_cfg.c **** 			{0x69u, 0x10u},
 499:Generated_Source\PSoC4/cyfitter_cfg.c **** 			{0x6Au, 0x30u},
 500:Generated_Source\PSoC4/cyfitter_cfg.c **** 			{0x6Bu, 0x10u},
ARM GAS  C:\Users\Feiyang\AppData\Local\Temp\ccPo2xg9.s 			page 14


 501:Generated_Source\PSoC4/cyfitter_cfg.c **** 			{0x6Du, 0x10u},
 502:Generated_Source\PSoC4/cyfitter_cfg.c **** 			{0x6Eu, 0x10u},
 503:Generated_Source\PSoC4/cyfitter_cfg.c **** 			{0x6Fu, 0x12u},
 504:Generated_Source\PSoC4/cyfitter_cfg.c **** 			{0x82u, 0x11u},
 505:Generated_Source\PSoC4/cyfitter_cfg.c **** 			{0x85u, 0xE3u},
 506:Generated_Source\PSoC4/cyfitter_cfg.c **** 			{0x87u, 0x1Cu},
 507:Generated_Source\PSoC4/cyfitter_cfg.c **** 			{0x88u, 0x05u},
 508:Generated_Source\PSoC4/cyfitter_cfg.c **** 			{0x89u, 0xE3u},
 509:Generated_Source\PSoC4/cyfitter_cfg.c **** 			{0x8Au, 0x08u},
 510:Generated_Source\PSoC4/cyfitter_cfg.c **** 			{0x8Bu, 0x1Cu},
 511:Generated_Source\PSoC4/cyfitter_cfg.c **** 			{0x8Cu, 0x04u},
 512:Generated_Source\PSoC4/cyfitter_cfg.c **** 			{0x8Du, 0xE0u},
 513:Generated_Source\PSoC4/cyfitter_cfg.c **** 			{0x8Eu, 0x08u},
 514:Generated_Source\PSoC4/cyfitter_cfg.c **** 			{0x8Fu, 0x1Cu},
 515:Generated_Source\PSoC4/cyfitter_cfg.c **** 			{0x92u, 0x02u},
 516:Generated_Source\PSoC4/cyfitter_cfg.c **** 			{0x95u, 0x03u},
 517:Generated_Source\PSoC4/cyfitter_cfg.c **** 			{0x97u, 0xFCu},
 518:Generated_Source\PSoC4/cyfitter_cfg.c **** 			{0x99u, 0x92u},
 519:Generated_Source\PSoC4/cyfitter_cfg.c **** 			{0x9Au, 0x20u},
 520:Generated_Source\PSoC4/cyfitter_cfg.c **** 			{0x9Bu, 0x25u},
 521:Generated_Source\PSoC4/cyfitter_cfg.c **** 			{0x9Cu, 0x01u},
 522:Generated_Source\PSoC4/cyfitter_cfg.c **** 			{0x9Du, 0x1Fu},
 523:Generated_Source\PSoC4/cyfitter_cfg.c **** 			{0x9Eu, 0x20u},
 524:Generated_Source\PSoC4/cyfitter_cfg.c **** 			{0x9Fu, 0xE0u},
 525:Generated_Source\PSoC4/cyfitter_cfg.c **** 			{0xA0u, 0x0Du},
 526:Generated_Source\PSoC4/cyfitter_cfg.c **** 			{0xA1u, 0x48u},
 527:Generated_Source\PSoC4/cyfitter_cfg.c **** 			{0xA3u, 0x25u},
 528:Generated_Source\PSoC4/cyfitter_cfg.c **** 			{0xA4u, 0x05u},
 529:Generated_Source\PSoC4/cyfitter_cfg.c **** 			{0xA6u, 0x08u},
 530:Generated_Source\PSoC4/cyfitter_cfg.c **** 			{0xA8u, 0x05u},
 531:Generated_Source\PSoC4/cyfitter_cfg.c **** 			{0xAAu, 0x08u},
 532:Generated_Source\PSoC4/cyfitter_cfg.c **** 			{0xADu, 0x25u},
 533:Generated_Source\PSoC4/cyfitter_cfg.c **** 			{0xAFu, 0xDAu},
 534:Generated_Source\PSoC4/cyfitter_cfg.c **** 			{0xB0u, 0x03u},
 535:Generated_Source\PSoC4/cyfitter_cfg.c **** 			{0xB1u, 0xFFu},
 536:Generated_Source\PSoC4/cyfitter_cfg.c **** 			{0xB4u, 0x30u},
 537:Generated_Source\PSoC4/cyfitter_cfg.c **** 			{0xB6u, 0x0Cu},
 538:Generated_Source\PSoC4/cyfitter_cfg.c **** 			{0xBBu, 0x08u},
 539:Generated_Source\PSoC4/cyfitter_cfg.c **** 			{0xBEu, 0x10u},
 540:Generated_Source\PSoC4/cyfitter_cfg.c **** 			{0xBFu, 0x01u},
 541:Generated_Source\PSoC4/cyfitter_cfg.c **** 			{0xD8u, 0x04u},
 542:Generated_Source\PSoC4/cyfitter_cfg.c **** 			{0xD9u, 0x04u},
 543:Generated_Source\PSoC4/cyfitter_cfg.c **** 			{0xDFu, 0x01u},
 544:Generated_Source\PSoC4/cyfitter_cfg.c **** 			{0x01u, 0x42u},
 545:Generated_Source\PSoC4/cyfitter_cfg.c **** 			{0x02u, 0x08u},
 546:Generated_Source\PSoC4/cyfitter_cfg.c **** 			{0x05u, 0x96u},
 547:Generated_Source\PSoC4/cyfitter_cfg.c **** 			{0x08u, 0x90u},
 548:Generated_Source\PSoC4/cyfitter_cfg.c **** 			{0x09u, 0x02u},
 549:Generated_Source\PSoC4/cyfitter_cfg.c **** 			{0x0Au, 0x04u},
 550:Generated_Source\PSoC4/cyfitter_cfg.c **** 			{0x0Du, 0x04u},
 551:Generated_Source\PSoC4/cyfitter_cfg.c **** 			{0x0Eu, 0x44u},
 552:Generated_Source\PSoC4/cyfitter_cfg.c **** 			{0x10u, 0xA0u},
 553:Generated_Source\PSoC4/cyfitter_cfg.c **** 			{0x11u, 0x10u},
 554:Generated_Source\PSoC4/cyfitter_cfg.c **** 			{0x14u, 0x80u},
 555:Generated_Source\PSoC4/cyfitter_cfg.c **** 			{0x16u, 0x08u},
 556:Generated_Source\PSoC4/cyfitter_cfg.c **** 			{0x17u, 0x44u},
 557:Generated_Source\PSoC4/cyfitter_cfg.c **** 			{0x19u, 0x82u},
ARM GAS  C:\Users\Feiyang\AppData\Local\Temp\ccPo2xg9.s 			page 15


 558:Generated_Source\PSoC4/cyfitter_cfg.c **** 			{0x1Au, 0x02u},
 559:Generated_Source\PSoC4/cyfitter_cfg.c **** 			{0x1Bu, 0x11u},
 560:Generated_Source\PSoC4/cyfitter_cfg.c **** 			{0x1Cu, 0x02u},
 561:Generated_Source\PSoC4/cyfitter_cfg.c **** 			{0x1Du, 0x30u},
 562:Generated_Source\PSoC4/cyfitter_cfg.c **** 			{0x1Eu, 0x40u},
 563:Generated_Source\PSoC4/cyfitter_cfg.c **** 			{0x1Fu, 0x08u},
 564:Generated_Source\PSoC4/cyfitter_cfg.c **** 			{0x21u, 0x0Eu},
 565:Generated_Source\PSoC4/cyfitter_cfg.c **** 			{0x26u, 0x80u},
 566:Generated_Source\PSoC4/cyfitter_cfg.c **** 			{0x27u, 0x08u},
 567:Generated_Source\PSoC4/cyfitter_cfg.c **** 			{0x28u, 0x80u},
 568:Generated_Source\PSoC4/cyfitter_cfg.c **** 			{0x2Bu, 0x01u},
 569:Generated_Source\PSoC4/cyfitter_cfg.c **** 			{0x2Fu, 0x02u},
 570:Generated_Source\PSoC4/cyfitter_cfg.c **** 			{0x30u, 0x90u},
 571:Generated_Source\PSoC4/cyfitter_cfg.c **** 			{0x32u, 0x08u},
 572:Generated_Source\PSoC4/cyfitter_cfg.c **** 			{0x33u, 0x04u},
 573:Generated_Source\PSoC4/cyfitter_cfg.c **** 			{0x39u, 0x54u},
 574:Generated_Source\PSoC4/cyfitter_cfg.c **** 			{0x3Cu, 0x02u},
 575:Generated_Source\PSoC4/cyfitter_cfg.c **** 			{0x3Du, 0x20u},
 576:Generated_Source\PSoC4/cyfitter_cfg.c **** 			{0x3Fu, 0x08u},
 577:Generated_Source\PSoC4/cyfitter_cfg.c **** 			{0x45u, 0x28u},
 578:Generated_Source\PSoC4/cyfitter_cfg.c **** 			{0x46u, 0x80u},
 579:Generated_Source\PSoC4/cyfitter_cfg.c **** 			{0x4Eu, 0x01u},
 580:Generated_Source\PSoC4/cyfitter_cfg.c **** 			{0x4Fu, 0x28u},
 581:Generated_Source\PSoC4/cyfitter_cfg.c **** 			{0x57u, 0x02u},
 582:Generated_Source\PSoC4/cyfitter_cfg.c **** 			{0x58u, 0x08u},
 583:Generated_Source\PSoC4/cyfitter_cfg.c **** 			{0x5Bu, 0x08u},
 584:Generated_Source\PSoC4/cyfitter_cfg.c **** 			{0x5Eu, 0x02u},
 585:Generated_Source\PSoC4/cyfitter_cfg.c **** 			{0x62u, 0x80u},
 586:Generated_Source\PSoC4/cyfitter_cfg.c **** 			{0x63u, 0x01u},
 587:Generated_Source\PSoC4/cyfitter_cfg.c **** 			{0x64u, 0x08u},
 588:Generated_Source\PSoC4/cyfitter_cfg.c **** 			{0x67u, 0x81u},
 589:Generated_Source\PSoC4/cyfitter_cfg.c **** 			{0x81u, 0x10u},
 590:Generated_Source\PSoC4/cyfitter_cfg.c **** 			{0x82u, 0x80u},
 591:Generated_Source\PSoC4/cyfitter_cfg.c **** 			{0x8Eu, 0x01u},
 592:Generated_Source\PSoC4/cyfitter_cfg.c **** 			{0x8Fu, 0x08u},
 593:Generated_Source\PSoC4/cyfitter_cfg.c **** 			{0x91u, 0x54u},
 594:Generated_Source\PSoC4/cyfitter_cfg.c **** 			{0x92u, 0x04u},
 595:Generated_Source\PSoC4/cyfitter_cfg.c **** 			{0x95u, 0x08u},
 596:Generated_Source\PSoC4/cyfitter_cfg.c **** 			{0x96u, 0x40u},
 597:Generated_Source\PSoC4/cyfitter_cfg.c **** 			{0x97u, 0x80u},
 598:Generated_Source\PSoC4/cyfitter_cfg.c **** 			{0x98u, 0x80u},
 599:Generated_Source\PSoC4/cyfitter_cfg.c **** 			{0x99u, 0x04u},
 600:Generated_Source\PSoC4/cyfitter_cfg.c **** 			{0x9Au, 0x08u},
 601:Generated_Source\PSoC4/cyfitter_cfg.c **** 			{0x9Bu, 0x40u},
 602:Generated_Source\PSoC4/cyfitter_cfg.c **** 			{0x9Du, 0x90u},
 603:Generated_Source\PSoC4/cyfitter_cfg.c **** 			{0xA0u, 0xA0u},
 604:Generated_Source\PSoC4/cyfitter_cfg.c **** 			{0xA1u, 0x10u},
 605:Generated_Source\PSoC4/cyfitter_cfg.c **** 			{0xA2u, 0x08u},
 606:Generated_Source\PSoC4/cyfitter_cfg.c **** 			{0xA5u, 0x08u},
 607:Generated_Source\PSoC4/cyfitter_cfg.c **** 			{0xACu, 0x84u},
 608:Generated_Source\PSoC4/cyfitter_cfg.c **** 			{0xAFu, 0x50u},
 609:Generated_Source\PSoC4/cyfitter_cfg.c **** 			{0xB0u, 0x40u},
 610:Generated_Source\PSoC4/cyfitter_cfg.c **** 			{0xB1u, 0x10u},
 611:Generated_Source\PSoC4/cyfitter_cfg.c **** 			{0xC0u, 0xFBu},
 612:Generated_Source\PSoC4/cyfitter_cfg.c **** 			{0xC2u, 0x7Bu},
 613:Generated_Source\PSoC4/cyfitter_cfg.c **** 			{0xC4u, 0xFEu},
 614:Generated_Source\PSoC4/cyfitter_cfg.c **** 			{0xCAu, 0x19u},
ARM GAS  C:\Users\Feiyang\AppData\Local\Temp\ccPo2xg9.s 			page 16


 615:Generated_Source\PSoC4/cyfitter_cfg.c **** 			{0xCCu, 0x0Eu},
 616:Generated_Source\PSoC4/cyfitter_cfg.c **** 			{0xCEu, 0xEEu},
 617:Generated_Source\PSoC4/cyfitter_cfg.c **** 			{0xD0u, 0xE0u},
 618:Generated_Source\PSoC4/cyfitter_cfg.c **** 			{0xD2u, 0x30u},
 619:Generated_Source\PSoC4/cyfitter_cfg.c **** 			{0xD6u, 0x80u},
 620:Generated_Source\PSoC4/cyfitter_cfg.c **** 			{0xD8u, 0xB0u},
 621:Generated_Source\PSoC4/cyfitter_cfg.c **** 			{0x0Bu, 0x40u},
 622:Generated_Source\PSoC4/cyfitter_cfg.c **** 			{0x6Fu, 0x02u},
 623:Generated_Source\PSoC4/cyfitter_cfg.c **** 			{0xC2u, 0x10u},
 624:Generated_Source\PSoC4/cyfitter_cfg.c **** 			{0xDAu, 0x80u},
 625:Generated_Source\PSoC4/cyfitter_cfg.c **** 			{0xAFu, 0x42u},
 626:Generated_Source\PSoC4/cyfitter_cfg.c **** 			{0xEAu, 0x10u},
 627:Generated_Source\PSoC4/cyfitter_cfg.c **** 			{0xECu, 0x40u},
 628:Generated_Source\PSoC4/cyfitter_cfg.c **** 			{0x10u, 0x01u},
 629:Generated_Source\PSoC4/cyfitter_cfg.c **** 			{0x11u, 0x01u},
 630:Generated_Source\PSoC4/cyfitter_cfg.c **** 		};
 631:Generated_Source\PSoC4/cyfitter_cfg.c **** 
 632:Generated_Source\PSoC4/cyfitter_cfg.c **** 
 633:Generated_Source\PSoC4/cyfitter_cfg.c **** 
 634:Generated_Source\PSoC4/cyfitter_cfg.c **** 		CYPACKED typedef struct {
 635:Generated_Source\PSoC4/cyfitter_cfg.c **** 			void CYFAR *address;
 636:Generated_Source\PSoC4/cyfitter_cfg.c **** 			uint16 size;
 637:Generated_Source\PSoC4/cyfitter_cfg.c **** 		} CYPACKED_ATTR cfg_memset_t;
 638:Generated_Source\PSoC4/cyfitter_cfg.c **** 
 639:Generated_Source\PSoC4/cyfitter_cfg.c **** 		static const cfg_memset_t CYCODE cfg_memset_list [] = {
 640:Generated_Source\PSoC4/cyfitter_cfg.c **** 			/* address, size */
 641:Generated_Source\PSoC4/cyfitter_cfg.c **** 			{(void CYFAR *)(CYDEV_UDB_P0_U0_BASE), 1024u},
 642:Generated_Source\PSoC4/cyfitter_cfg.c **** 			{(void CYFAR *)(CYDEV_UDB_DSI0_BASE), 1024u},
 643:Generated_Source\PSoC4/cyfitter_cfg.c **** 		};
 644:Generated_Source\PSoC4/cyfitter_cfg.c **** 
 645:Generated_Source\PSoC4/cyfitter_cfg.c **** 		uint8 CYDATA i;
 646:Generated_Source\PSoC4/cyfitter_cfg.c **** 
 647:Generated_Source\PSoC4/cyfitter_cfg.c **** 		/* Zero out critical memory blocks before beginning configuration */
 648:Generated_Source\PSoC4/cyfitter_cfg.c **** 		for (i = 0u; i < (sizeof(cfg_memset_list)/sizeof(cfg_memset_list[0])); i++)
 236              		.loc 1 648 0
 237 009a 0024     		mov	r4, #0
 238 009c 10E0     		b	.L11
 239              	.LVL19:
 240              	.L12:
 241              	.LBB4:
 649:Generated_Source\PSoC4/cyfitter_cfg.c **** 		{
 650:Generated_Source\PSoC4/cyfitter_cfg.c **** 			const cfg_memset_t CYCODE * CYDATA ms = &cfg_memset_list[i];
 651:Generated_Source\PSoC4/cyfitter_cfg.c **** 			CYMEMZERO(ms->address, (size_t)(uint32)(ms->size));
 242              		.loc 1 651 0 discriminator 3
 243 009e 2B48     		ldr	r0, .L13+4
 244 00a0 6300     		lsl	r3, r4, #1
 245 00a2 1A19     		add	r2, r3, r4
 246 00a4 5200     		lsl	r2, r2, #1
 247 00a6 8218     		add	r2, r0, r2
 248 00a8 9188     		ldrh	r1, [r2, #4]
 249 00aa 1B19     		add	r3, r3, r4
 250 00ac 5B00     		lsl	r3, r3, #1
 251 00ae 1A5A     		ldrh	r2, [r3, r0]
 252 00b0 C318     		add	r3, r0, r3
 253 00b2 5888     		ldrh	r0, [r3, #2]
 254 00b4 0004     		lsl	r0, r0, #16
 255 00b6 1043     		orr	r0, r2
ARM GAS  C:\Users\Feiyang\AppData\Local\Temp\ccPo2xg9.s 			page 17


 256 00b8 FFF7FEFF 		bl	CYMEMZERO
 257              	.LVL20:
 258              	.LBE4:
 648:Generated_Source\PSoC4/cyfitter_cfg.c **** 		{
 259              		.loc 1 648 0 discriminator 3
 260 00bc 0134     		add	r4, r4, #1
 261              	.LVL21:
 262 00be E4B2     		uxtb	r4, r4
 263              	.LVL22:
 264              	.L11:
 648:Generated_Source\PSoC4/cyfitter_cfg.c **** 		{
 265              		.loc 1 648 0 is_stmt 0 discriminator 1
 266 00c0 012C     		cmp	r4, #1
 267 00c2 ECD9     		bls	.L12
 652:Generated_Source\PSoC4/cyfitter_cfg.c **** 		}
 653:Generated_Source\PSoC4/cyfitter_cfg.c **** 
 654:Generated_Source\PSoC4/cyfitter_cfg.c **** 		cfg_write_bytes32(cy_cfg_addr_table, cy_cfg_data_table);
 268              		.loc 1 654 0 is_stmt 1
 269 00c4 2149     		ldr	r1, .L13+4
 270 00c6 081C     		mov	r0, r1
 271 00c8 0C30     		add	r0, r0, #12
 272 00ca 2C31     		add	r1, r1, #44
 273 00cc FFF7FEFF 		bl	cfg_write_bytes32
 274              	.LVL23:
 655:Generated_Source\PSoC4/cyfitter_cfg.c **** 
 656:Generated_Source\PSoC4/cyfitter_cfg.c **** 		/* Perform normal device configuration. Order is not critical for these items. */
 657:Generated_Source\PSoC4/cyfitter_cfg.c **** 		CY_SET_XTND_REG16((void CYFAR *)(CYREG_UDB_BCTL0_DRV), 0x0100u);
 275              		.loc 1 657 0
 276 00d0 8022     		mov	r2, #128
 277 00d2 5200     		lsl	r2, r2, #1
 278 00d4 1E4B     		ldr	r3, .L13+8
 279 00d6 1A80     		strh	r2, [r3]
 658:Generated_Source\PSoC4/cyfitter_cfg.c **** 		CY_SET_XTND_REG8((void CYFAR *)(CYREG_UDB_BCTL0_DRV + 0x2u), 0x01u);
 280              		.loc 1 658 0
 281 00d8 0123     		mov	r3, #1
 282 00da 1E4A     		ldr	r2, .L13+12
 283 00dc 1370     		strb	r3, [r2]
 659:Generated_Source\PSoC4/cyfitter_cfg.c **** 
 660:Generated_Source\PSoC4/cyfitter_cfg.c **** 		/* HSIOM Starting address: CYDEV_HSIOM_BASE */
 661:Generated_Source\PSoC4/cyfitter_cfg.c **** 		CY_SET_XTND_REG32((void CYFAR *)(CYDEV_HSIOM_BASE), 0x00900000u);
 284              		.loc 1 661 0
 285 00de 9021     		mov	r1, #144
 286 00e0 0904     		lsl	r1, r1, #16
 287 00e2 1D4A     		ldr	r2, .L13+16
 288 00e4 1160     		str	r1, [r2]
 662:Generated_Source\PSoC4/cyfitter_cfg.c **** 		CY_SET_XTND_REG32((void CYFAR *)(CYREG_HSIOM_PORT_SEL3), 0x0000EE09u);
 289              		.loc 1 662 0
 290 00e6 1D49     		ldr	r1, .L13+20
 291 00e8 1D4A     		ldr	r2, .L13+24
 292 00ea 1160     		str	r1, [r2]
 663:Generated_Source\PSoC4/cyfitter_cfg.c **** 
 664:Generated_Source\PSoC4/cyfitter_cfg.c **** 		/* UDB_PA_0 Starting address: CYDEV_UDB_PA0_BASE */
 665:Generated_Source\PSoC4/cyfitter_cfg.c **** 		CY_SET_XTND_REG32((void CYFAR *)(CYDEV_UDB_PA0_BASE), 0x00990004u);
 293              		.loc 1 665 0
 294 00ec 1D49     		ldr	r1, .L13+28
 295 00ee 1E4A     		ldr	r2, .L13+32
 296 00f0 1160     		str	r1, [r2]
ARM GAS  C:\Users\Feiyang\AppData\Local\Temp\ccPo2xg9.s 			page 18


 666:Generated_Source\PSoC4/cyfitter_cfg.c **** 		CY_SET_XTND_REG32((void CYFAR *)(CYREG_UDB_PA0_CFG4), 0x02000000u);
 297              		.loc 1 666 0
 298 00f2 8021     		mov	r1, #128
 299 00f4 8904     		lsl	r1, r1, #18
 300 00f6 1D4A     		ldr	r2, .L13+36
 301 00f8 1160     		str	r1, [r2]
 667:Generated_Source\PSoC4/cyfitter_cfg.c **** 
 668:Generated_Source\PSoC4/cyfitter_cfg.c **** 		/* UDB_PA_3 Starting address: CYDEV_UDB_PA3_BASE */
 669:Generated_Source\PSoC4/cyfitter_cfg.c **** 		CY_SET_XTND_REG32((void CYFAR *)(CYDEV_UDB_PA3_BASE), 0x00990000u);
 302              		.loc 1 669 0
 303 00fa 9921     		mov	r1, #153
 304 00fc 0904     		lsl	r1, r1, #16
 305 00fe 1C4A     		ldr	r2, .L13+40
 306 0100 1160     		str	r1, [r2]
 670:Generated_Source\PSoC4/cyfitter_cfg.c **** 
 671:Generated_Source\PSoC4/cyfitter_cfg.c **** 		/* INT_SELECT Starting address: CYDEV_CPUSS_INTR_SELECT */
 672:Generated_Source\PSoC4/cyfitter_cfg.c **** 		CY_SET_XTND_REG32((void CYFAR *)(CYREG_CPUSS_INTR_SELECT), 0x00000001u);
 307              		.loc 1 672 0
 308 0102 1C4A     		ldr	r2, .L13+44
 309 0104 1360     		str	r3, [r2]
 673:Generated_Source\PSoC4/cyfitter_cfg.c **** 
 674:Generated_Source\PSoC4/cyfitter_cfg.c **** 		/* INT_CONFIG Starting address: CYDEV_UDB_INT_CFG */
 675:Generated_Source\PSoC4/cyfitter_cfg.c **** 		CY_SET_XTND_REG32((void CYFAR *)(CYREG_UDB_INT_CFG), 0x00000002u);
 310              		.loc 1 675 0
 311 0106 0222     		mov	r2, #2
 312 0108 1B4B     		ldr	r3, .L13+48
 313 010a 1A60     		str	r2, [r3]
 676:Generated_Source\PSoC4/cyfitter_cfg.c **** 
 677:Generated_Source\PSoC4/cyfitter_cfg.c **** 		/* Enable digital routing */
 678:Generated_Source\PSoC4/cyfitter_cfg.c **** 		CY_SET_XTND_REG8((void *)CYREG_UDB_UDBIF_BANK_CTL, CY_GET_XTND_REG8((void *)CYREG_UDB_UDBIF_BANK_
 314              		.loc 1 678 0
 315 010c 1B4B     		ldr	r3, .L13+52
 316 010e 1978     		ldrb	r1, [r3]
 317 0110 0A43     		orr	r2, r1
 318 0112 1A70     		strb	r2, [r3]
 679:Generated_Source\PSoC4/cyfitter_cfg.c **** 
 680:Generated_Source\PSoC4/cyfitter_cfg.c **** 		/* Enable UDB array */
 681:Generated_Source\PSoC4/cyfitter_cfg.c **** 		CY_SET_XTND_REG8((void *)CYREG_UDB_UDBIF_WAIT_CFG, (uint8)((CY_GET_XTND_REG8((void *)CYREG_UDB_UD
 319              		.loc 1 681 0
 320 0114 1A48     		ldr	r0, .L13+56
 321 0116 0278     		ldrb	r2, [r0]
 322 0118 3C21     		mov	r1, #60
 323 011a 8A43     		bic	r2, r1
 324 011c 2839     		sub	r1, r1, #40
 325 011e 0A43     		orr	r2, r1
 326 0120 0270     		strb	r2, [r0]
 682:Generated_Source\PSoC4/cyfitter_cfg.c **** 		CY_SET_XTND_REG8((void *)CYREG_UDB_UDBIF_BANK_CTL, (uint8)(CY_GET_XTND_REG8((void *)CYREG_UDB_UDB
 327              		.loc 1 682 0
 328 0122 1978     		ldrb	r1, [r3]
 329 0124 1622     		mov	r2, #22
 330 0126 0A43     		orr	r2, r1
 331 0128 1A70     		strb	r2, [r3]
 332              	.LBE3:
 683:Generated_Source\PSoC4/cyfitter_cfg.c **** 	}
 684:Generated_Source\PSoC4/cyfitter_cfg.c **** 
 685:Generated_Source\PSoC4/cyfitter_cfg.c **** 	/* Perform second pass device configuration. These items must be configured in specific order afte
 686:Generated_Source\PSoC4/cyfitter_cfg.c **** 	/* IOPINS0_0 Starting address: CYDEV_PRT0_BASE */
ARM GAS  C:\Users\Feiyang\AppData\Local\Temp\ccPo2xg9.s 			page 19


 687:Generated_Source\PSoC4/cyfitter_cfg.c **** 	CY_SET_XTND_REG32((void CYFAR *)(CYDEV_PRT0_BASE), 0x00000020u);
 333              		.loc 1 687 0
 334 012a 2023     		mov	r3, #32
 335 012c 154A     		ldr	r2, .L13+60
 336 012e 1360     		str	r3, [r2]
 688:Generated_Source\PSoC4/cyfitter_cfg.c **** 	CY_SET_XTND_REG32((void CYFAR *)(CYREG_PRT0_PC), 0x00031000u);
 337              		.loc 1 688 0
 338 0130 C421     		mov	r1, #196
 339 0132 8902     		lsl	r1, r1, #10
 340 0134 144A     		ldr	r2, .L13+64
 341 0136 1160     		str	r1, [r2]
 689:Generated_Source\PSoC4/cyfitter_cfg.c **** 	CY_SET_XTND_REG32((void CYFAR *)(CYREG_PRT0_PC2), 0x00000020u);
 342              		.loc 1 689 0
 343 0138 144A     		ldr	r2, .L13+68
 344 013a 1360     		str	r3, [r2]
 690:Generated_Source\PSoC4/cyfitter_cfg.c **** 
 691:Generated_Source\PSoC4/cyfitter_cfg.c **** 	/* IOPINS0_3 Starting address: CYDEV_PRT3_BASE */
 692:Generated_Source\PSoC4/cyfitter_cfg.c **** 	CY_SET_XTND_REG32((void CYFAR *)(CYREG_PRT3_PC), 0x00000D81u);
 345              		.loc 1 692 0
 346 013c 144A     		ldr	r2, .L13+72
 347 013e 154B     		ldr	r3, .L13+76
 348 0140 1A60     		str	r2, [r3]
 693:Generated_Source\PSoC4/cyfitter_cfg.c **** 
 694:Generated_Source\PSoC4/cyfitter_cfg.c **** 
 695:Generated_Source\PSoC4/cyfitter_cfg.c **** 	/* Setup clocks based on selections from Clock DWR */
 696:Generated_Source\PSoC4/cyfitter_cfg.c **** 	ClockSetup();
 349              		.loc 1 696 0
 350 0142 FFF75DFF 		bl	ClockSetup
 351              	.LVL24:
 697:Generated_Source\PSoC4/cyfitter_cfg.c **** 
 698:Generated_Source\PSoC4/cyfitter_cfg.c **** 	/* Perform basic analog initialization to defaults */
 699:Generated_Source\PSoC4/cyfitter_cfg.c **** 	AnalogSetDefault();
 700:Generated_Source\PSoC4/cyfitter_cfg.c **** 
 701:Generated_Source\PSoC4/cyfitter_cfg.c **** }
 352              		.loc 1 701 0
 353              		@ sp needed
 354              	.LVL25:
 355 0146 10BD     		pop	{r4, pc}
 356              	.L14:
 357              		.align	2
 358              	.L13:
 359 0148 1C700F40 		.word	1074753564
 360 014c 00000000 		.word	.LANCHOR0
 361 0150 00600F40 		.word	1074749440
 362 0154 02600F40 		.word	1074749442
 363 0158 00000140 		.word	1073807360
 364 015c 09EE0000 		.word	60937
 365 0160 0C000140 		.word	1073807372
 366 0164 04009900 		.word	10027012
 367 0168 00500F40 		.word	1074745344
 368 016c 04500F40 		.word	1074745348
 369 0170 30500F40 		.word	1074745392
 370 0174 20000040 		.word	1073741856
 371 0178 00800F40 		.word	1074757632
 372 017c 00700F40 		.word	1074753536
 373 0180 01700F40 		.word	1074753537
 374 0184 00000440 		.word	1074003968
ARM GAS  C:\Users\Feiyang\AppData\Local\Temp\ccPo2xg9.s 			page 20


 375 0188 08000440 		.word	1074003976
 376 018c 18000440 		.word	1074003992
 377 0190 810D0000 		.word	3457
 378 0194 08030440 		.word	1074004744
 379              		.cfi_endproc
 380              	.LFE6:
 381              		.size	cyfitter_cfg, .-cyfitter_cfg
 382              		.section	.rodata
 383              		.align	2
 384              		.set	.LANCHOR0,. + 0
 385              		.type	cfg_memset_list.4748, %object
 386              		.size	cfg_memset_list.4748, 12
 387              	cfg_memset_list.4748:
 388 0000 00300F40 		.word	1074737152
 389 0004 0004     		.short	1024
 390 0006 00400F40 		.4byte	1074741248
 391 000a 0004     		.short	1024
 392              		.type	cy_cfg_addr_table.4742, %object
 393              		.size	cy_cfg_addr_table.4742, 32
 394              	cy_cfg_addr_table.4742:
 395 000c 02000F40 		.word	1074724866
 396 0010 61300F40 		.word	1074737249
 397 0014 34310F40 		.word	1074737460
 398 0018 61320F40 		.word	1074737761
 399 001c 4D330F40 		.word	1074737997
 400 0020 04400F40 		.word	1074741252
 401 0024 03410F40 		.word	1074741507
 402 0028 02600F40 		.word	1074749442
 403              		.type	cy_cfg_data_table.4743, %object
 404              		.size	cy_cfg_data_table.4743, 668
 405              	cy_cfg_data_table.4743:
 406 002c 80       		.byte	-128
 407 002d 76       		.byte	118
 408 002e 82       		.byte	-126
 409 002f 38       		.byte	56
 410 0030 00       		.byte	0
 411 0031 03       		.byte	3
 412 0032 04       		.byte	4
 413 0033 54       		.byte	84
 414 0034 06       		.byte	6
 415 0035 A8       		.byte	-88
 416 0036 0A       		.byte	10
 417 0037 03       		.byte	3
 418 0038 0C       		.byte	12
 419 0039 C1       		.byte	-63
 420 003a 0E       		.byte	14
 421 003b 32       		.byte	50
 422 003c 10       		.byte	16
 423 003d 03       		.byte	3
 424 003e 14       		.byte	20
 425 003f 03       		.byte	3
 426 0040 18       		.byte	24
 427 0041 A8       		.byte	-88
 428 0042 1A       		.byte	26
 429 0043 54       		.byte	84
 430 0044 1C       		.byte	28
 431 0045 CD       		.byte	-51
ARM GAS  C:\Users\Feiyang\AppData\Local\Temp\ccPo2xg9.s 			page 21


 432 0046 1E       		.byte	30
 433 0047 32       		.byte	50
 434 0048 20       		.byte	32
 435 0049 3F       		.byte	63
 436 004a 22       		.byte	34
 437 004b C0       		.byte	-64
 438 004c 24       		.byte	36
 439 004d CD       		.byte	-51
 440 004e 26       		.byte	38
 441 004f 32       		.byte	50
 442 0050 28       		.byte	40
 443 0051 0D       		.byte	13
 444 0052 2A       		.byte	42
 445 0053 F2       		.byte	-14
 446 0054 30       		.byte	48
 447 0055 03       		.byte	3
 448 0056 34       		.byte	52
 449 0057 FC       		.byte	-4
 450 0058 40       		.byte	64
 451 0059 05       		.byte	5
 452 005a 44       		.byte	68
 453 005b 22       		.byte	34
 454 005c 49       		.byte	73
 455 005d FF       		.byte	-1
 456 005e 4A       		.byte	74
 457 005f FF       		.byte	-1
 458 0060 4B       		.byte	75
 459 0061 FF       		.byte	-1
 460 0062 4C       		.byte	76
 461 0063 02       		.byte	2
 462 0064 4D       		.byte	77
 463 0065 0C       		.byte	12
 464 0066 4E       		.byte	78
 465 0067 F8       		.byte	-8
 466 0068 50       		.byte	80
 467 0069 02       		.byte	2
 468 006a 56       		.byte	86
 469 006b 02       		.byte	2
 470 006c 57       		.byte	87
 471 006d 13       		.byte	19
 472 006e 58       		.byte	88
 473 006f 04       		.byte	4
 474 0070 5A       		.byte	90
 475 0071 08       		.byte	8
 476 0072 5B       		.byte	91
 477 0073 04       		.byte	4
 478 0074 5F       		.byte	95
 479 0075 01       		.byte	1
 480 0076 62       		.byte	98
 481 0077 48       		.byte	72
 482 0078 63       		.byte	99
 483 0079 A1       		.byte	-95
 484 007a 68       		.byte	104
 485 007b F0       		.byte	-16
 486 007c 6A       		.byte	106
 487 007d F0       		.byte	-16
 488 007e 6C       		.byte	108
ARM GAS  C:\Users\Feiyang\AppData\Local\Temp\ccPo2xg9.s 			page 22


 489 007f F0       		.byte	-16
 490 0080 6E       		.byte	110
 491 0081 F0       		.byte	-16
 492 0082 83       		.byte	-125
 493 0083 04       		.byte	4
 494 0084 85       		.byte	-123
 495 0085 10       		.byte	16
 496 0086 88       		.byte	-120
 497 0087 10       		.byte	16
 498 0088 89       		.byte	-119
 499 0089 08       		.byte	8
 500 008a 8A       		.byte	-118
 501 008b 04       		.byte	4
 502 008c 8D       		.byte	-115
 503 008d 40       		.byte	64
 504 008e 90       		.byte	-112
 505 008f 14       		.byte	20
 506 0090 91       		.byte	-111
 507 0091 3C       		.byte	60
 508 0092 93       		.byte	-109
 509 0093 81       		.byte	-127
 510 0094 94       		.byte	-108
 511 0095 02       		.byte	2
 512 0096 95       		.byte	-107
 513 0097 BF       		.byte	-65
 514 0098 96       		.byte	-106
 515 0099 01       		.byte	1
 516 009a 98       		.byte	-104
 517 009b 01       		.byte	1
 518 009c 99       		.byte	-103
 519 009d 40       		.byte	64
 520 009e 9A       		.byte	-102
 521 009f 02       		.byte	2
 522 00a0 9B       		.byte	-101
 523 00a1 18       		.byte	24
 524 00a2 9D       		.byte	-99
 525 00a3 BC       		.byte	-68
 526 00a4 9F       		.byte	-97
 527 00a5 02       		.byte	2
 528 00a6 A2       		.byte	-94
 529 00a7 0C       		.byte	12
 530 00a8 A4       		.byte	-92
 531 00a9 14       		.byte	20
 532 00aa A5       		.byte	-91
 533 00ab 04       		.byte	4
 534 00ac A9       		.byte	-87
 535 00ad A7       		.byte	-89
 536 00ae AB       		.byte	-85
 537 00af 18       		.byte	24
 538 00b0 AC       		.byte	-84
 539 00b1 14       		.byte	20
 540 00b2 AF       		.byte	-81
 541 00b3 83       		.byte	-125
 542 00b4 B0       		.byte	-80
 543 00b5 10       		.byte	16
 544 00b6 B1       		.byte	-79
 545 00b7 1F       		.byte	31
ARM GAS  C:\Users\Feiyang\AppData\Local\Temp\ccPo2xg9.s 			page 23


 546 00b8 B2       		.byte	-78
 547 00b9 04       		.byte	4
 548 00ba B3       		.byte	-77
 549 00bb 60       		.byte	96
 550 00bc B4       		.byte	-76
 551 00bd 03       		.byte	3
 552 00be B5       		.byte	-75
 553 00bf 98       		.byte	-104
 554 00c0 B6       		.byte	-74
 555 00c1 08       		.byte	8
 556 00c2 B9       		.byte	-71
 557 00c3 08       		.byte	8
 558 00c4 BB       		.byte	-69
 559 00c5 02       		.byte	2
 560 00c6 BE       		.byte	-66
 561 00c7 11       		.byte	17
 562 00c8 C0       		.byte	-64
 563 00c9 05       		.byte	5
 564 00ca C4       		.byte	-60
 565 00cb 22       		.byte	34
 566 00cc C5       		.byte	-59
 567 00cd 0A       		.byte	10
 568 00ce C8       		.byte	-56
 569 00cf 01       		.byte	1
 570 00d0 C9       		.byte	-55
 571 00d1 FF       		.byte	-1
 572 00d2 CA       		.byte	-54
 573 00d3 FF       		.byte	-1
 574 00d4 CB       		.byte	-53
 575 00d5 FF       		.byte	-1
 576 00d6 CC       		.byte	-52
 577 00d7 03       		.byte	3
 578 00d8 CD       		.byte	-51
 579 00d9 0C       		.byte	12
 580 00da CE       		.byte	-50
 581 00db F4       		.byte	-12
 582 00dc D8       		.byte	-40
 583 00dd 04       		.byte	4
 584 00de D9       		.byte	-39
 585 00df 04       		.byte	4
 586 00e0 DA       		.byte	-38
 587 00e1 08       		.byte	8
 588 00e2 DB       		.byte	-37
 589 00e3 04       		.byte	4
 590 00e4 DF       		.byte	-33
 591 00e5 01       		.byte	1
 592 00e6 E2       		.byte	-30
 593 00e7 48       		.byte	72
 594 00e8 E3       		.byte	-29
 595 00e9 A1       		.byte	-95
 596 00ea E8       		.byte	-24
 597 00eb F0       		.byte	-16
 598 00ec EA       		.byte	-22
 599 00ed F0       		.byte	-16
 600 00ee EC       		.byte	-20
 601 00ef F0       		.byte	-16
 602 00f0 EE       		.byte	-18
ARM GAS  C:\Users\Feiyang\AppData\Local\Temp\ccPo2xg9.s 			page 24


 603 00f1 F0       		.byte	-16
 604 00f2 00       		.byte	0
 605 00f3 08       		.byte	8
 606 00f4 01       		.byte	1
 607 00f5 60       		.byte	96
 608 00f6 03       		.byte	3
 609 00f7 40       		.byte	64
 610 00f8 05       		.byte	5
 611 00f9 30       		.byte	48
 612 00fa 08       		.byte	8
 613 00fb 40       		.byte	64
 614 00fc 09       		.byte	9
 615 00fd 08       		.byte	8
 616 00fe 0A       		.byte	10
 617 00ff 44       		.byte	68
 618 0100 0C       		.byte	12
 619 0101 01       		.byte	1
 620 0102 0E       		.byte	14
 621 0103 50       		.byte	80
 622 0104 0F       		.byte	15
 623 0105 08       		.byte	8
 624 0106 10       		.byte	16
 625 0107 A0       		.byte	-96
 626 0108 12       		.byte	18
 627 0109 08       		.byte	8
 628 010a 14       		.byte	20
 629 010b 80       		.byte	-128
 630 010c 15       		.byte	21
 631 010d 08       		.byte	8
 632 010e 17       		.byte	23
 633 010f 48       		.byte	72
 634 0110 1A       		.byte	26
 635 0111 04       		.byte	4
 636 0112 1B       		.byte	27
 637 0113 03       		.byte	3
 638 0114 1D       		.byte	29
 639 0115 21       		.byte	33
 640 0116 1E       		.byte	30
 641 0117 11       		.byte	17
 642 0118 25       		.byte	37
 643 0119 10       		.byte	16
 644 011a 26       		.byte	38
 645 011b 08       		.byte	8
 646 011c 27       		.byte	39
 647 011d 50       		.byte	80
 648 011e 2D       		.byte	45
 649 011f A0       		.byte	-96
 650 0120 2F       		.byte	47
 651 0121 10       		.byte	16
 652 0122 34       		.byte	52
 653 0123 01       		.byte	1
 654 0124 37       		.byte	55
 655 0125 58       		.byte	88
 656 0126 3E       		.byte	62
 657 0127 09       		.byte	9
 658 0128 3F       		.byte	63
 659 0129 50       		.byte	80
ARM GAS  C:\Users\Feiyang\AppData\Local\Temp\ccPo2xg9.s 			page 25


 660 012a 41       		.byte	65
 661 012b 20       		.byte	32
 662 012c 45       		.byte	69
 663 012d 20       		.byte	32
 664 012e 48       		.byte	72
 665 012f 02       		.byte	2
 666 0130 4C       		.byte	76
 667 0131 02       		.byte	2
 668 0132 4F       		.byte	79
 669 0133 08       		.byte	8
 670 0134 59       		.byte	89
 671 0135 01       		.byte	1
 672 0136 68       		.byte	104
 673 0137 A0       		.byte	-96
 674 0138 69       		.byte	105
 675 0139 54       		.byte	84
 676 013a 6C       		.byte	108
 677 013b 02       		.byte	2
 678 013c 71       		.byte	113
 679 013d 04       		.byte	4
 680 013e 72       		.byte	114
 681 013f 08       		.byte	8
 682 0140 73       		.byte	115
 683 0141 50       		.byte	80
 684 0142 7B       		.byte	123
 685 0143 01       		.byte	1
 686 0144 7F       		.byte	127
 687 0145 02       		.byte	2
 688 0146 C0       		.byte	-64
 689 0147 4F       		.byte	79
 690 0148 C2       		.byte	-62
 691 0149 7F       		.byte	127
 692 014a C4       		.byte	-60
 693 014b BE       		.byte	-66
 694 014c CA       		.byte	-54
 695 014d 70       		.byte	112
 696 014e CC       		.byte	-52
 697 014f F0       		.byte	-16
 698 0150 CE       		.byte	-50
 699 0151 F0       		.byte	-16
 700 0152 D0       		.byte	-48
 701 0153 24       		.byte	36
 702 0154 D2       		.byte	-46
 703 0155 18       		.byte	24
 704 0156 D6       		.byte	-42
 705 0157 01       		.byte	1
 706 0158 DE       		.byte	-34
 707 0159 18       		.byte	24
 708 015a 00       		.byte	0
 709 015b C3       		.byte	-61
 710 015c 03       		.byte	3
 711 015d 01       		.byte	1
 712 015e 04       		.byte	4
 713 015f 08       		.byte	8
 714 0160 07       		.byte	7
 715 0161 02       		.byte	2
 716 0162 08       		.byte	8
ARM GAS  C:\Users\Feiyang\AppData\Local\Temp\ccPo2xg9.s 			page 26


 717 0163 E7       		.byte	-25
 718 0164 0A       		.byte	10
 719 0165 18       		.byte	24
 720 0166 0B       		.byte	11
 721 0167 02       		.byte	2
 722 0168 0E       		.byte	14
 723 0169 C7       		.byte	-57
 724 016a 10       		.byte	16
 725 016b D8       		.byte	-40
 726 016c 12       		.byte	18
 727 016d 27       		.byte	39
 728 016e 14       		.byte	20
 729 016f FF       		.byte	-1
 730 0170 18       		.byte	24
 731 0171 82       		.byte	-126
 732 0172 20       		.byte	32
 733 0173 41       		.byte	65
 734 0174 26       		.byte	38
 735 0175 18       		.byte	24
 736 0176 28       		.byte	40
 737 0177 10       		.byte	16
 738 0178 2C       		.byte	44
 739 0179 18       		.byte	24
 740 017a 2E       		.byte	46
 741 017b E7       		.byte	-25
 742 017c 2F       		.byte	47
 743 017d 01       		.byte	1
 744 017e 30       		.byte	48
 745 017f 1C       		.byte	28
 746 0180 32       		.byte	50
 747 0181 03       		.byte	3
 748 0182 34       		.byte	52
 749 0183 D8       		.byte	-40
 750 0184 35       		.byte	53
 751 0185 01       		.byte	1
 752 0186 36       		.byte	54
 753 0187 20       		.byte	32
 754 0188 37       		.byte	55
 755 0189 02       		.byte	2
 756 018a 38       		.byte	56
 757 018b 80       		.byte	-128
 758 018c 3A       		.byte	58
 759 018d 22       		.byte	34
 760 018e 3F       		.byte	63
 761 018f 50       		.byte	80
 762 0190 40       		.byte	64
 763 0191 25       		.byte	37
 764 0192 41       		.byte	65
 765 0193 03       		.byte	3
 766 0194 42       		.byte	66
 767 0195 04       		.byte	4
 768 0196 44       		.byte	68
 769 0197 06       		.byte	6
 770 0198 45       		.byte	69
 771 0199 0C       		.byte	12
 772 019a 47       		.byte	71
 773 019b E0       		.byte	-32
ARM GAS  C:\Users\Feiyang\AppData\Local\Temp\ccPo2xg9.s 			page 27


 774 019c 48       		.byte	72
 775 019d 21       		.byte	33
 776 019e 49       		.byte	73
 777 019f FF       		.byte	-1
 778 01a0 4A       		.byte	74
 779 01a1 FF       		.byte	-1
 780 01a2 4B       		.byte	75
 781 01a3 FF       		.byte	-1
 782 01a4 4C       		.byte	76
 783 01a5 62       		.byte	98
 784 01a6 4D       		.byte	77
 785 01a7 A0       		.byte	-96
 786 01a8 4E       		.byte	78
 787 01a9 F0       		.byte	-16
 788 01aa 4F       		.byte	79
 789 01ab 41       		.byte	65
 790 01ac 50       		.byte	80
 791 01ad 0C       		.byte	12
 792 01ae 54       		.byte	84
 793 01af 18       		.byte	24
 794 01b0 56       		.byte	86
 795 01b1 04       		.byte	4
 796 01b2 58       		.byte	88
 797 01b3 04       		.byte	4
 798 01b4 59       		.byte	89
 799 01b5 04       		.byte	4
 800 01b6 5A       		.byte	90
 801 01b7 04       		.byte	4
 802 01b8 5B       		.byte	91
 803 01b9 04       		.byte	4
 804 01ba 5F       		.byte	95
 805 01bb 01       		.byte	1
 806 01bc 66       		.byte	102
 807 01bd 40       		.byte	64
 808 01be 67       		.byte	103
 809 01bf 02       		.byte	2
 810 01c0 69       		.byte	105
 811 01c1 10       		.byte	16
 812 01c2 6A       		.byte	106
 813 01c3 30       		.byte	48
 814 01c4 6B       		.byte	107
 815 01c5 10       		.byte	16
 816 01c6 6D       		.byte	109
 817 01c7 10       		.byte	16
 818 01c8 6E       		.byte	110
 819 01c9 10       		.byte	16
 820 01ca 6F       		.byte	111
 821 01cb 12       		.byte	18
 822 01cc 82       		.byte	-126
 823 01cd 11       		.byte	17
 824 01ce 85       		.byte	-123
 825 01cf E3       		.byte	-29
 826 01d0 87       		.byte	-121
 827 01d1 1C       		.byte	28
 828 01d2 88       		.byte	-120
 829 01d3 05       		.byte	5
 830 01d4 89       		.byte	-119
ARM GAS  C:\Users\Feiyang\AppData\Local\Temp\ccPo2xg9.s 			page 28


 831 01d5 E3       		.byte	-29
 832 01d6 8A       		.byte	-118
 833 01d7 08       		.byte	8
 834 01d8 8B       		.byte	-117
 835 01d9 1C       		.byte	28
 836 01da 8C       		.byte	-116
 837 01db 04       		.byte	4
 838 01dc 8D       		.byte	-115
 839 01dd E0       		.byte	-32
 840 01de 8E       		.byte	-114
 841 01df 08       		.byte	8
 842 01e0 8F       		.byte	-113
 843 01e1 1C       		.byte	28
 844 01e2 92       		.byte	-110
 845 01e3 02       		.byte	2
 846 01e4 95       		.byte	-107
 847 01e5 03       		.byte	3
 848 01e6 97       		.byte	-105
 849 01e7 FC       		.byte	-4
 850 01e8 99       		.byte	-103
 851 01e9 92       		.byte	-110
 852 01ea 9A       		.byte	-102
 853 01eb 20       		.byte	32
 854 01ec 9B       		.byte	-101
 855 01ed 25       		.byte	37
 856 01ee 9C       		.byte	-100
 857 01ef 01       		.byte	1
 858 01f0 9D       		.byte	-99
 859 01f1 1F       		.byte	31
 860 01f2 9E       		.byte	-98
 861 01f3 20       		.byte	32
 862 01f4 9F       		.byte	-97
 863 01f5 E0       		.byte	-32
 864 01f6 A0       		.byte	-96
 865 01f7 0D       		.byte	13
 866 01f8 A1       		.byte	-95
 867 01f9 48       		.byte	72
 868 01fa A3       		.byte	-93
 869 01fb 25       		.byte	37
 870 01fc A4       		.byte	-92
 871 01fd 05       		.byte	5
 872 01fe A6       		.byte	-90
 873 01ff 08       		.byte	8
 874 0200 A8       		.byte	-88
 875 0201 05       		.byte	5
 876 0202 AA       		.byte	-86
 877 0203 08       		.byte	8
 878 0204 AD       		.byte	-83
 879 0205 25       		.byte	37
 880 0206 AF       		.byte	-81
 881 0207 DA       		.byte	-38
 882 0208 B0       		.byte	-80
 883 0209 03       		.byte	3
 884 020a B1       		.byte	-79
 885 020b FF       		.byte	-1
 886 020c B4       		.byte	-76
 887 020d 30       		.byte	48
ARM GAS  C:\Users\Feiyang\AppData\Local\Temp\ccPo2xg9.s 			page 29


 888 020e B6       		.byte	-74
 889 020f 0C       		.byte	12
 890 0210 BB       		.byte	-69
 891 0211 08       		.byte	8
 892 0212 BE       		.byte	-66
 893 0213 10       		.byte	16
 894 0214 BF       		.byte	-65
 895 0215 01       		.byte	1
 896 0216 D8       		.byte	-40
 897 0217 04       		.byte	4
 898 0218 D9       		.byte	-39
 899 0219 04       		.byte	4
 900 021a DF       		.byte	-33
 901 021b 01       		.byte	1
 902 021c 01       		.byte	1
 903 021d 42       		.byte	66
 904 021e 02       		.byte	2
 905 021f 08       		.byte	8
 906 0220 05       		.byte	5
 907 0221 96       		.byte	-106
 908 0222 08       		.byte	8
 909 0223 90       		.byte	-112
 910 0224 09       		.byte	9
 911 0225 02       		.byte	2
 912 0226 0A       		.byte	10
 913 0227 04       		.byte	4
 914 0228 0D       		.byte	13
 915 0229 04       		.byte	4
 916 022a 0E       		.byte	14
 917 022b 44       		.byte	68
 918 022c 10       		.byte	16
 919 022d A0       		.byte	-96
 920 022e 11       		.byte	17
 921 022f 10       		.byte	16
 922 0230 14       		.byte	20
 923 0231 80       		.byte	-128
 924 0232 16       		.byte	22
 925 0233 08       		.byte	8
 926 0234 17       		.byte	23
 927 0235 44       		.byte	68
 928 0236 19       		.byte	25
 929 0237 82       		.byte	-126
 930 0238 1A       		.byte	26
 931 0239 02       		.byte	2
 932 023a 1B       		.byte	27
 933 023b 11       		.byte	17
 934 023c 1C       		.byte	28
 935 023d 02       		.byte	2
 936 023e 1D       		.byte	29
 937 023f 30       		.byte	48
 938 0240 1E       		.byte	30
 939 0241 40       		.byte	64
 940 0242 1F       		.byte	31
 941 0243 08       		.byte	8
 942 0244 21       		.byte	33
 943 0245 0E       		.byte	14
 944 0246 26       		.byte	38
ARM GAS  C:\Users\Feiyang\AppData\Local\Temp\ccPo2xg9.s 			page 30


 945 0247 80       		.byte	-128
 946 0248 27       		.byte	39
 947 0249 08       		.byte	8
 948 024a 28       		.byte	40
 949 024b 80       		.byte	-128
 950 024c 2B       		.byte	43
 951 024d 01       		.byte	1
 952 024e 2F       		.byte	47
 953 024f 02       		.byte	2
 954 0250 30       		.byte	48
 955 0251 90       		.byte	-112
 956 0252 32       		.byte	50
 957 0253 08       		.byte	8
 958 0254 33       		.byte	51
 959 0255 04       		.byte	4
 960 0256 39       		.byte	57
 961 0257 54       		.byte	84
 962 0258 3C       		.byte	60
 963 0259 02       		.byte	2
 964 025a 3D       		.byte	61
 965 025b 20       		.byte	32
 966 025c 3F       		.byte	63
 967 025d 08       		.byte	8
 968 025e 45       		.byte	69
 969 025f 28       		.byte	40
 970 0260 46       		.byte	70
 971 0261 80       		.byte	-128
 972 0262 4E       		.byte	78
 973 0263 01       		.byte	1
 974 0264 4F       		.byte	79
 975 0265 28       		.byte	40
 976 0266 57       		.byte	87
 977 0267 02       		.byte	2
 978 0268 58       		.byte	88
 979 0269 08       		.byte	8
 980 026a 5B       		.byte	91
 981 026b 08       		.byte	8
 982 026c 5E       		.byte	94
 983 026d 02       		.byte	2
 984 026e 62       		.byte	98
 985 026f 80       		.byte	-128
 986 0270 63       		.byte	99
 987 0271 01       		.byte	1
 988 0272 64       		.byte	100
 989 0273 08       		.byte	8
 990 0274 67       		.byte	103
 991 0275 81       		.byte	-127
 992 0276 81       		.byte	-127
 993 0277 10       		.byte	16
 994 0278 82       		.byte	-126
 995 0279 80       		.byte	-128
 996 027a 8E       		.byte	-114
 997 027b 01       		.byte	1
 998 027c 8F       		.byte	-113
 999 027d 08       		.byte	8
 1000 027e 91       		.byte	-111
 1001 027f 54       		.byte	84
ARM GAS  C:\Users\Feiyang\AppData\Local\Temp\ccPo2xg9.s 			page 31


 1002 0280 92       		.byte	-110
 1003 0281 04       		.byte	4
 1004 0282 95       		.byte	-107
 1005 0283 08       		.byte	8
 1006 0284 96       		.byte	-106
 1007 0285 40       		.byte	64
 1008 0286 97       		.byte	-105
 1009 0287 80       		.byte	-128
 1010 0288 98       		.byte	-104
 1011 0289 80       		.byte	-128
 1012 028a 99       		.byte	-103
 1013 028b 04       		.byte	4
 1014 028c 9A       		.byte	-102
 1015 028d 08       		.byte	8
 1016 028e 9B       		.byte	-101
 1017 028f 40       		.byte	64
 1018 0290 9D       		.byte	-99
 1019 0291 90       		.byte	-112
 1020 0292 A0       		.byte	-96
 1021 0293 A0       		.byte	-96
 1022 0294 A1       		.byte	-95
 1023 0295 10       		.byte	16
 1024 0296 A2       		.byte	-94
 1025 0297 08       		.byte	8
 1026 0298 A5       		.byte	-91
 1027 0299 08       		.byte	8
 1028 029a AC       		.byte	-84
 1029 029b 84       		.byte	-124
 1030 029c AF       		.byte	-81
 1031 029d 50       		.byte	80
 1032 029e B0       		.byte	-80
 1033 029f 40       		.byte	64
 1034 02a0 B1       		.byte	-79
 1035 02a1 10       		.byte	16
 1036 02a2 C0       		.byte	-64
 1037 02a3 FB       		.byte	-5
 1038 02a4 C2       		.byte	-62
 1039 02a5 7B       		.byte	123
 1040 02a6 C4       		.byte	-60
 1041 02a7 FE       		.byte	-2
 1042 02a8 CA       		.byte	-54
 1043 02a9 19       		.byte	25
 1044 02aa CC       		.byte	-52
 1045 02ab 0E       		.byte	14
 1046 02ac CE       		.byte	-50
 1047 02ad EE       		.byte	-18
 1048 02ae D0       		.byte	-48
 1049 02af E0       		.byte	-32
 1050 02b0 D2       		.byte	-46
 1051 02b1 30       		.byte	48
 1052 02b2 D6       		.byte	-42
 1053 02b3 80       		.byte	-128
 1054 02b4 D8       		.byte	-40
 1055 02b5 B0       		.byte	-80
 1056 02b6 0B       		.byte	11
 1057 02b7 40       		.byte	64
 1058 02b8 6F       		.byte	111
ARM GAS  C:\Users\Feiyang\AppData\Local\Temp\ccPo2xg9.s 			page 32


 1059 02b9 02       		.byte	2
 1060 02ba C2       		.byte	-62
 1061 02bb 10       		.byte	16
 1062 02bc DA       		.byte	-38
 1063 02bd 80       		.byte	-128
 1064 02be AF       		.byte	-81
 1065 02bf 42       		.byte	66
 1066 02c0 EA       		.byte	-22
 1067 02c1 10       		.byte	16
 1068 02c2 EC       		.byte	-20
 1069 02c3 40       		.byte	64
 1070 02c4 10       		.byte	16
 1071 02c5 01       		.byte	1
 1072 02c6 11       		.byte	17
 1073 02c7 01       		.byte	1
 1074              		.text
 1075              	.Letext0:
 1076              		.file 2 "c:\\program files (x86)\\cypress\\psoc creator\\4.0\\psoc creator\\import\\gnu\\arm\\4.9.
 1077              		.file 3 "Generated_Source\\PSoC4\\cytypes.h"
 1078              		.file 4 "Generated_Source\\PSoC4\\CyLib.h"