ARM GAS  C:\Users\Feiyang\AppData\Local\Temp\ccLSIgkG.s 			page 1


   1              		.cpu cortex-m0
   2              		.fpu softvfp
   3              		.eabi_attribute 20, 1
   4              		.eabi_attribute 21, 1
   5              		.eabi_attribute 23, 3
   6              		.eabi_attribute 24, 1
   7              		.eabi_attribute 25, 1
   8              		.eabi_attribute 26, 1
   9              		.eabi_attribute 30, 1
  10              		.eabi_attribute 34, 0
  11              		.eabi_attribute 18, 4
  12              		.code	16
  13              		.file	"main.c"
  14              		.text
  15              	.Ltext0:
  16              		.cfi_sections	.debug_frame
  17              		.section	.text.uart_rx_isr,"ax",%progbits
  18              		.align	2
  19              		.global	uart_rx_isr
  20              		.code	16
  21              		.thumb_func
  22              		.type	uart_rx_isr, %function
  23              	uart_rx_isr:
  24              	.LFB34:
  25              		.file 1 "main.c"
   1:main.c        **** 
   2:main.c        **** 
   3:main.c        **** #include <project.h>
   4:main.c        **** 
   5:main.c        **** 
   6:main.c        **** CY_ISR(uart_rx_isr){
  26              		.loc 1 6 0
  27              		.cfi_startproc
  28 0000 00B5     		push	{lr}
  29              		.cfi_def_cfa_offset 4
  30              		.cfi_offset 14, -4
  31 0002 83B0     		sub	sp, sp, #12
  32              		.cfi_def_cfa_offset 16
   7:main.c        ****     char ch = UART_1_GetChar();
  33              		.loc 1 7 0
  34 0004 FFF7FEFF 		bl	UART_1_GetChar
  35              	.LVL0:
   8:main.c        ****     
   9:main.c        ****     if (ch == 27){
  36              		.loc 1 9 0
  37 0008 1B28     		cmp	r0, #27
  38 000a 02D1     		bne	.L2
  10:main.c        ****         CRC_1_WriteSeed(0x0000);
  39              		.loc 1 10 0
  40 000c 0020     		mov	r0, #0
  41              	.LVL1:
  42 000e FFF7FEFF 		bl	CRC_1_WriteSeed
  43              	.LVL2:
  44              	.L2:
  11:main.c        ****     }
  12:main.c        ****     
  13:main.c        ****     CyDelay(1u);
ARM GAS  C:\Users\Feiyang\AppData\Local\Temp\ccLSIgkG.s 			page 2


  45              		.loc 1 13 0
  46 0012 0120     		mov	r0, #1
  47 0014 FFF7FEFF 		bl	CyDelay
  48              	.LVL3:
  14:main.c        ****     
  15:main.c        ****     uint16 crc = CRC_1_ReadCRC();
  49              		.loc 1 15 0
  50 0018 FFF7FEFF 		bl	CRC_1_ReadCRC
  51              	.LVL4:
  52 001c 021C     		mov	r2, r0
  53              	.LVL5:
  16:main.c        ****     char str_out[4];
  17:main.c        ****     sprintf(str_out, "%04X", crc);
  54              		.loc 1 17 0
  55 001e 01A8     		add	r0, sp, #4
  56 0020 0549     		ldr	r1, .L3
  57 0022 FFF7FEFF 		bl	sprintf
  58              	.LVL6:
  18:main.c        ****     UART_2_UartPutString(str_out);
  59              		.loc 1 18 0
  60 0026 01A8     		add	r0, sp, #4
  61 0028 FFF7FEFF 		bl	UART_2_UartPutString
  62              	.LVL7:
  19:main.c        ****     UART_2_UartPutString("\r\n");
  63              		.loc 1 19 0
  64 002c 0348     		ldr	r0, .L3+4
  65 002e FFF7FEFF 		bl	UART_2_UartPutString
  66              	.LVL8:
  20:main.c        **** }
  67              		.loc 1 20 0
  68 0032 03B0     		add	sp, sp, #12
  69              		@ sp needed
  70 0034 00BD     		pop	{pc}
  71              	.L4:
  72 0036 C046     		.align	2
  73              	.L3:
  74 0038 00000000 		.word	.LC0
  75 003c 08000000 		.word	.LC2
  76              		.cfi_endproc
  77              	.LFE34:
  78              		.size	uart_rx_isr, .-uart_rx_isr
  79              		.section	.text.main,"ax",%progbits
  80              		.align	2
  81              		.global	main
  82              		.code	16
  83              		.thumb_func
  84              		.type	main, %function
  85              	main:
  86              	.LFB35:
  21:main.c        **** 
  22:main.c        **** int main()
  23:main.c        **** {
  87              		.loc 1 23 0
  88              		.cfi_startproc
  89 0000 10B5     		push	{r4, lr}
  90              		.cfi_def_cfa_offset 8
  91              		.cfi_offset 4, -8
ARM GAS  C:\Users\Feiyang\AppData\Local\Temp\ccLSIgkG.s 			page 3


  92              		.cfi_offset 14, -4
  93 0002 82B0     		sub	sp, sp, #8
  94              		.cfi_def_cfa_offset 16
  24:main.c        ****     isr_1_StartEx(uart_rx_isr);
  95              		.loc 1 24 0
  96 0004 0D48     		ldr	r0, .L7
  97 0006 FFF7FEFF 		bl	isr_1_StartEx
  98              	.LVL9:
  25:main.c        ****     CyGlobalIntEnable;
  99              		.loc 1 25 0
 100              	@ 25 "main.c" 1
 101 000a 62B6     		CPSIE   i
 102              	@ 0 "" 2
  26:main.c        ****     UART_1_Start();
 103              		.loc 1 26 0
 104              		.code	16
 105 000c FFF7FEFF 		bl	UART_1_Start
 106              	.LVL10:
  27:main.c        ****     UART_2_Start();
 107              		.loc 1 27 0
 108 0010 FFF7FEFF 		bl	UART_2_Start
 109              	.LVL11:
  28:main.c        ****     CRC_1_Start();
 110              		.loc 1 28 0
 111 0014 FFF7FEFF 		bl	CRC_1_Start
 112              	.LVL12:
  29:main.c        ****     UART_2_UartPutString("\r\n");
 113              		.loc 1 29 0
 114 0018 094C     		ldr	r4, .L7+4
 115 001a 201C     		mov	r0, r4
 116 001c FFF7FEFF 		bl	UART_2_UartPutString
 117              	.LVL13:
  30:main.c        ****     
  31:main.c        ****     uint16 crc = CRC_1_ReadCRC();
 118              		.loc 1 31 0
 119 0020 FFF7FEFF 		bl	CRC_1_ReadCRC
 120              	.LVL14:
 121 0024 021C     		mov	r2, r0
 122              	.LVL15:
  32:main.c        ****     char str_out[4];
  33:main.c        ****     sprintf(str_out, "%04X", crc);
 123              		.loc 1 33 0
 124 0026 01A8     		add	r0, sp, #4
 125 0028 0649     		ldr	r1, .L7+8
 126 002a FFF7FEFF 		bl	sprintf
 127              	.LVL16:
  34:main.c        ****     UART_2_UartPutString(str_out);
 128              		.loc 1 34 0
 129 002e 01A8     		add	r0, sp, #4
 130 0030 FFF7FEFF 		bl	UART_2_UartPutString
 131              	.LVL17:
  35:main.c        ****     UART_2_UartPutString("\r\n");
 132              		.loc 1 35 0
 133 0034 201C     		mov	r0, r4
 134 0036 FFF7FEFF 		bl	UART_2_UartPutString
 135              	.LVL18:
 136              	.L6:
ARM GAS  C:\Users\Feiyang\AppData\Local\Temp\ccLSIgkG.s 			page 4


  36:main.c        ****     
  37:main.c        ****     for (;;) 
  38:main.c        ****     {
  39:main.c        ****         
  40:main.c        ****         
  41:main.c        ****     }
 137              		.loc 1 41 0 discriminator 1
 138 003a FEE7     		b	.L6
 139              	.L8:
 140              		.align	2
 141              	.L7:
 142 003c 00000000 		.word	uart_rx_isr
 143 0040 08000000 		.word	.LC2
 144 0044 00000000 		.word	.LC0
 145              		.cfi_endproc
 146              	.LFE35:
 147              		.size	main, .-main
 148              		.section	.rodata.str1.4,"aMS",%progbits,1
 149              		.align	2
 150              	.LC0:
 151 0000 25303458 		.ascii	"%04X\000"
 151      00
 152 0005 000000   		.space	3
 153              	.LC2:
 154 0008 0D0A00   		.ascii	"\015\012\000"
 155 000b 00       		.text
 156              	.Letext0:
 157              		.file 2 "Generated_Source\\PSoC4/cytypes.h"
 158              		.file 3 "<built-in>"
 159              		.file 4 "Generated_Source\\PSoC4/CRC_1.h"
 160              		.file 5 "Generated_Source\\PSoC4/CyLib.h"
 161              		.file 6 "Generated_Source\\PSoC4/UART_1.h"
 162              		.file 7 "Generated_Source\\PSoC4/UART_2_SPI_UART.h"
 163              		.file 8 "Generated_Source\\PSoC4/isr_1.h"
 164              		.file 9 "Generated_Source\\PSoC4/UART_2.h"