ARM GAS  C:\Users\Feiyang\AppData\Local\Temp\ccXXNWlQ.s 			page 1


   1              		.cpu cortex-m0
   2              		.fpu softvfp
   3              		.eabi_attribute 20, 1
   4              		.eabi_attribute 21, 1
   5              		.eabi_attribute 23, 3
   6              		.eabi_attribute 24, 1
   7              		.eabi_attribute 25, 1
   8              		.eabi_attribute 26, 1
   9              		.eabi_attribute 30, 1
  10              		.eabi_attribute 34, 0
  11              		.eabi_attribute 18, 4
  12              		.code	16
  13              		.file	"main2.c"
  14              		.text
  15              	.Ltext0:
  16              		.cfi_sections	.debug_frame
  17              		.section	.text.Clock1,"ax",%progbits
  18              		.align	2
  19              		.global	Clock1
  20              		.code	16
  21              		.thumb_func
  22              		.type	Clock1, %function
  23              	Clock1:
  24              	.LFB34:
  25              		.file 1 "main2.c"
   1:main2.c       **** /*******************************************************************************
   2:main2.c       **** * File Name: main.c
   3:main2.c       **** *
   4:main2.c       **** * Version: 2.1
   5:main2.c       **** *
   6:main2.c       **** * Description:
   7:main2.c       **** *  This is source code for Example Project of the CRC component.
   8:main2.c       **** *  Parameters used:
   9:main2.c       **** *   Standard Polynomial - CRC-16
  10:main2.c       **** *   Resolution          - 16 bits
  11:main2.c       **** *   Implementation      - Single Cycle 
  12:main2.c       **** *   Polynomial Value    - 0xC002
  13:main2.c       **** *   Seed Value          - 0x0000
  14:main2.c       **** *
  15:main2.c       **** * This project consists of 16 bits CRC (in the Single Cycle Implementation Mode).
  16:main2.c       **** * Clock signal generated by the control register "Clock_Gen".
  17:main2.c       **** * Reset signal generated by the control register "Reset_Gen".
  18:main2.c       **** * CRC consistently execute some calculation (SEED_VALUE_COUNT define). 
  19:main2.c       **** * It value displayed on LCD and named: CRC.
  20:main2.c       **** * Software calculated value output on LCD for verification (SV).
  21:main2.c       **** * After calculation is finished reset of the CRC are execute. 
  22:main2.c       **** * Value after reset is displayed on LCD and named: CRC.
  23:main2.c       **** * All signals changes can see on oscillator or signal analyzer at PORT3 [2:0] by default.
  24:main2.c       **** * 
  25:main2.c       **** * Defines:
  26:main2.c       **** * SEED_VALUE_COUNT - set number of CRC calculate iteration. (20 by default)
  27:main2.c       **** * DISP_DELAY - set delay of information on the LCD. (1000 by default)
  28:main2.c       **** * in - input data signal (1 by default for software CRC calculation).
  29:main2.c       **** * 
  30:main2.c       **** * LCD view:
  31:main2.c       **** * SV = Software calculated CRC value.
  32:main2.c       **** * Calc = Hardware calculated CRC iteration at this time.
ARM GAS  C:\Users\Feiyang\AppData\Local\Temp\ccXXNWlQ.s 			page 2


  33:main2.c       **** * CRC = Hardware calculated CRC value for current iteration.
  34:main2.c       **** *
  35:main2.c       **** ********************************************************************************
  36:main2.c       **** * Copyright 2012, Cypress Semiconductor Corporation. All rights reserved.
  37:main2.c       **** * This software is owned by Cypress Semiconductor Corporation and is protected
  38:main2.c       **** * by and subject to worldwide patent and copyright laws and treaties.
  39:main2.c       **** * Therefore, you may use this software only as provided in the license agreement
  40:main2.c       **** * accompanying the software package from which you obtained this software.
  41:main2.c       **** * CYPRESS AND ITS SUPPLIERS MAKE NO WARRANTY OF ANY KIND, EXPRESS OR IMPLIED,
  42:main2.c       **** * WITH REGARD TO THIS SOFTWARE, INCLUDING, BUT NOT LIMITED TO, NONINFRINGEMENT,
  43:main2.c       **** * IMPLIED WARRANTIES OF MERCHANTABILITY AND FITNESS FOR A PARTICULAR PURPOSE.
  44:main2.c       **** *******************************************************************************/
  45:main2.c       **** 
  46:main2.c       **** #include <project.h>
  47:main2.c       **** 
  48:main2.c       **** #define DISP_DELAY          (1000u)     /* Display delay */
  49:main2.c       **** #define SEED_VALUE_COUNT    (20u)       /* Iteration amount */
  50:main2.c       **** #define in                     (1u)        /* Data input software value */
  51:main2.c       **** 
  52:main2.c       **** /*******************************************************************************
  53:main2.c       **** * Function Name: Clock1
  54:main2.c       **** ********************************************************************************
  55:main2.c       **** *
  56:main2.c       **** * Summary:
  57:main2.c       **** *  Generate clock signal.
  58:main2.c       **** *
  59:main2.c       **** * Parameters:
  60:main2.c       **** *  None.
  61:main2.c       **** *
  62:main2.c       **** * Return:
  63:main2.c       **** *  None.
  64:main2.c       **** *
  65:main2.c       **** *******************************************************************************/
  66:main2.c       **** void Clock1(void)
  67:main2.c       **** {
  26              		.loc 1 67 0
  27              		.cfi_startproc
  28 0000 08B5     		push	{r3, lr}
  29              		.cfi_def_cfa_offset 8
  30              		.cfi_offset 3, -8
  31              		.cfi_offset 14, -4
  68:main2.c       ****     Clock_Gen_Write(1u);
  32              		.loc 1 68 0
  33 0002 0120     		mov	r0, #1
  34 0004 FFF7FEFF 		bl	Clock_Gen_Write
  35              	.LVL0:
  69:main2.c       ****     CyDelay(1u);
  36              		.loc 1 69 0
  37 0008 0120     		mov	r0, #1
  38 000a FFF7FEFF 		bl	CyDelay
  39              	.LVL1:
  70:main2.c       ****     Clock_Gen_Write(0u);
  40              		.loc 1 70 0
  41 000e 0020     		mov	r0, #0
  42 0010 FFF7FEFF 		bl	Clock_Gen_Write
  43              	.LVL2:
  71:main2.c       ****     CyDelay(1u);
ARM GAS  C:\Users\Feiyang\AppData\Local\Temp\ccXXNWlQ.s 			page 3


  44              		.loc 1 71 0
  45 0014 0120     		mov	r0, #1
  46 0016 FFF7FEFF 		bl	CyDelay
  47              	.LVL3:
  72:main2.c       **** }
  48              		.loc 1 72 0
  49              		@ sp needed
  50 001a 08BD     		pop	{r3, pc}
  51              		.cfi_endproc
  52              	.LFE34:
  53              		.size	Clock1, .-Clock1
  54              		.section	.text.main,"ax",%progbits
  55              		.align	2
  56              		.global	main
  57              		.code	16
  58              		.thumb_func
  59              		.type	main, %function
  60              	main:
  61              	.LFB35:
  73:main2.c       **** 
  74:main2.c       **** 
  75:main2.c       **** /*******************************************************************************
  76:main2.c       **** * Function Name: main
  77:main2.c       **** ********************************************************************************
  78:main2.c       **** *
  79:main2.c       **** * Summary:
  80:main2.c       **** *  Main function performs following functions:
  81:main2.c       **** *   1. Generate Clock signals
  82:main2.c       **** *   2. Generate Reset signals
  83:main2.c       **** *   3. Execute software CRC calculation
  84:main2.c       **** *   4. Prints CRC calculated values on LCD.
  85:main2.c       **** *
  86:main2.c       **** * Parameters:
  87:main2.c       **** *  None.
  88:main2.c       **** *
  89:main2.c       **** * Return:
  90:main2.c       **** *  None.
  91:main2.c       **** *
  92:main2.c       **** *******************************************************************************/
  93:main2.c       **** void main()
  94:main2.c       **** {
  62              		.loc 1 94 0
  63              		.cfi_startproc
  64 0000 10B5     		push	{r4, lr}
  65              		.cfi_def_cfa_offset 8
  66              		.cfi_offset 4, -8
  67              		.cfi_offset 14, -4
  68 0002 82B0     		sub	sp, sp, #8
  69              		.cfi_def_cfa_offset 16
  95:main2.c       ****     UART_1_Start();
  70              		.loc 1 95 0
  71 0004 FFF7FEFF 		bl	UART_1_Start
  72              	.LVL4:
  96:main2.c       ****     UART_1_UartPutString("hello\r\n");
  73              		.loc 1 96 0
  74 0008 4248     		ldr	r0, .L10
  75 000a FFF7FEFF 		bl	UART_1_UartPutString
ARM GAS  C:\Users\Feiyang\AppData\Local\Temp\ccXXNWlQ.s 			page 4


  76              	.LVL5:
  97:main2.c       ****     
  98:main2.c       ****     uint16 CRC_val = 0u;
  99:main2.c       ****     uint16 seed, poly, seed_msb, int_xor_1, int_xor_res, and_op, xor_op;
 100:main2.c       ****     uint8 i;
 101:main2.c       **** 
 102:main2.c       ****     /* Initialization delay */
 103:main2.c       ****     CyDelay(50);
  77              		.loc 1 103 0
  78 000e 3220     		mov	r0, #50
  79 0010 FFF7FEFF 		bl	CyDelay
  80              	.LVL6:
 104:main2.c       **** 
 105:main2.c       ****     /* Enable global interrupts. */
 106:main2.c       ****     CyGlobalIntEnable;    
  81              		.loc 1 106 0
  82              	@ 106 "main2.c" 1
  83 0014 62B6     		CPSIE   i
  84              	@ 0 "" 2
 107:main2.c       **** 
 108:main2.c       ****     /* Initialization */    
 109:main2.c       ****     Reset_Gen_Write(0u);
  85              		.loc 1 109 0
  86              		.code	16
  87 0016 0020     		mov	r0, #0
  88 0018 FFF7FEFF 		bl	Reset_Gen_Write
  89              	.LVL7:
 110:main2.c       ****     Clock_Gen_Write(0u);
  90              		.loc 1 110 0
  91 001c 0020     		mov	r0, #0
  92 001e FFF7FEFF 		bl	Clock_Gen_Write
  93              	.LVL8:
 111:main2.c       ****         // LCD_Start();
 112:main2.c       ****     CRC_Start();
  94              		.loc 1 112 0
  95 0022 FFF7FEFF 		bl	CRC_Start
  96              	.LVL9:
 113:main2.c       ****     
 114:main2.c       ****     /* Software CRC value calculation */    
 115:main2.c       ****     CRC_val = CRC_ReadCRC();
  97              		.loc 1 115 0
  98 0026 FFF7FEFF 		bl	CRC_ReadCRC
  99              	.LVL10:
 100 002a 041C     		mov	r4, r0
 101              	.LVL11:
 116:main2.c       ****     poly = CRC_ReadPolynomial();
 102              		.loc 1 116 0
 103 002c FFF7FEFF 		bl	CRC_ReadPolynomial
 104              	.LVL12:
 117:main2.c       ****     seed = CRC_val; 
 118:main2.c       ****     seed_msb = CRC_val;
 119:main2.c       ****     for (i=0; i<SEED_VALUE_COUNT; i++)
 105              		.loc 1 119 0
 106 0030 0022     		mov	r2, #0
 107 0032 11E0     		b	.L3
 108              	.LVL13:
 109              	.L5:
ARM GAS  C:\Users\Feiyang\AppData\Local\Temp\ccXXNWlQ.s 			page 5


 120:main2.c       ****     {
 121:main2.c       ****         seed_msb = seed_msb >> (CRC_CRC_SIZE - 1);
 110              		.loc 1 121 0
 111 0034 E10B     		lsr	r1, r4, #15
 112 0036 89B2     		uxth	r1, r1
 113              	.LVL14:
 122:main2.c       ****         seed_msb = seed_msb & 1u;
 123:main2.c       ****         int_xor_1 = seed_msb ^ in;
 114              		.loc 1 123 0
 115 0038 0123     		mov	r3, #1
 116 003a 5940     		eor	r1, r3
 117              	.LVL15:
 124:main2.c       **** 
 125:main2.c       ****         if (int_xor_1 == 1u) 
 118              		.loc 1 125 0
 119 003c 0129     		cmp	r1, #1
 120 003e 01D1     		bne	.L9
 126:main2.c       ****         {
 127:main2.c       ****             int_xor_res = 0xffffu; 
 121              		.loc 1 127 0
 122 0040 354B     		ldr	r3, .L10+4
 123 0042 00E0     		b	.L4
 124              	.L9:
 128:main2.c       ****         }
 129:main2.c       ****         else 
 130:main2.c       ****         {
 131:main2.c       ****             int_xor_res = 0u; 
 125              		.loc 1 131 0
 126 0044 0023     		mov	r3, #0
 127              	.L4:
 128              	.LVL16:
 132:main2.c       ****         }
 133:main2.c       ****         
 134:main2.c       ****         and_op = int_xor_res & poly;
 129              		.loc 1 134 0 discriminator 2
 130 0046 0340     		and	r3, r0
 131              	.LVL17:
 135:main2.c       ****         xor_op = seed ^ and_op;
 132              		.loc 1 135 0 discriminator 2
 133 0048 6340     		eor	r3, r4
 134              	.LVL18:
 135 004a 9BB2     		uxth	r3, r3
 136              	.LVL19:
 136:main2.c       ****         seed = xor_op << 1u;
 137              		.loc 1 136 0 discriminator 2
 138 004c 5B00     		lsl	r3, r3, #1
 139              	.LVL20:
 140 004e 9BB2     		uxth	r3, r3
 141              	.LVL21:
 137:main2.c       ****         seed = seed | int_xor_1;
 142              		.loc 1 137 0 discriminator 2
 143 0050 0B43     		orr	r3, r1
 144              	.LVL22:
 145 0052 1C1C     		mov	r4, r3
 146              	.LVL23:
 119:main2.c       ****     {
 147              		.loc 1 119 0 discriminator 2
ARM GAS  C:\Users\Feiyang\AppData\Local\Temp\ccXXNWlQ.s 			page 6


 148 0054 0132     		add	r2, r2, #1
 149              	.LVL24:
 150 0056 D2B2     		uxtb	r2, r2
 151              	.LVL25:
 152              	.L3:
 119:main2.c       ****     {
 153              		.loc 1 119 0 is_stmt 0 discriminator 1
 154 0058 132A     		cmp	r2, #19
 155 005a EBD9     		bls	.L5
 138:main2.c       ****         seed_msb = seed;
 139:main2.c       ****         seed &= CRC_MASK;
 140:main2.c       ****     }
 141:main2.c       ****     
 142:main2.c       ****     /* Display Software calculated crc value on LCD */
 143:main2.c       ****     UART_1_UartPutString("SV=");
 156              		.loc 1 143 0 is_stmt 1
 157 005c 2F48     		ldr	r0, .L10+8
 158              	.LVL26:
 159 005e FFF7FEFF 		bl	UART_1_UartPutString
 160              	.LVL27:
 144:main2.c       ****     
 145:main2.c       ****     
 146:main2.c       ****     
 147:main2.c       ****     char str_out[8];
 148:main2.c       ****     sprintf(str_out, "%08X", seed);
 161              		.loc 1 148 0
 162 0062 6846     		mov	r0, sp
 163 0064 2E49     		ldr	r1, .L10+12
 164 0066 221C     		mov	r2, r4
 165 0068 FFF7FEFF 		bl	sprintf
 166              	.LVL28:
 149:main2.c       ****     UART_1_UartPutString(str_out);
 167              		.loc 1 149 0
 168 006c 6846     		mov	r0, sp
 169 006e FFF7FEFF 		bl	UART_1_UartPutString
 170              	.LVL29:
 150:main2.c       ****     UART_1_UartPutString("\r\n");
 171              		.loc 1 150 0
 172 0072 2C48     		ldr	r0, .L10+16
 173 0074 FFF7FEFF 		bl	UART_1_UartPutString
 174              	.LVL30:
 151:main2.c       ****     
 152:main2.c       **** //    LCD_PrintInt16(seed);    
 153:main2.c       ****     CyDelay(DISP_DELAY);
 175              		.loc 1 153 0
 176 0078 FA20     		mov	r0, #250
 177 007a 8000     		lsl	r0, r0, #2
 178 007c FFF7FEFF 		bl	CyDelay
 179              	.LVL31:
 154:main2.c       **** 
 155:main2.c       ****     /* Display Hardware calculated crc value and current iteration on LCD */
 156:main2.c       ****     for (i=0; i<=SEED_VALUE_COUNT; i++) 
 180              		.loc 1 156 0
 181 0080 0024     		mov	r4, #0
 182              	.LVL32:
 183 0082 25E0     		b	.L6
 184              	.LVL33:
ARM GAS  C:\Users\Feiyang\AppData\Local\Temp\ccXXNWlQ.s 			page 7


 185              	.L7:
 186              	.LBB2:
 157:main2.c       ****     {
 158:main2.c       ****         UART_1_UartPutString(" Calc=");
 187              		.loc 1 158 0 discriminator 3
 188 0084 2848     		ldr	r0, .L10+20
 189 0086 FFF7FEFF 		bl	UART_1_UartPutString
 190              	.LVL34:
 159:main2.c       ****         sprintf(str_out, "%08i", i);
 191              		.loc 1 159 0 discriminator 3
 192 008a 6846     		mov	r0, sp
 193 008c 2749     		ldr	r1, .L10+24
 194 008e 221C     		mov	r2, r4
 195 0090 FFF7FEFF 		bl	sprintf
 196              	.LVL35:
 160:main2.c       ****         UART_1_UartPutString(str_out);
 197              		.loc 1 160 0 discriminator 3
 198 0094 6846     		mov	r0, sp
 199 0096 FFF7FEFF 		bl	UART_1_UartPutString
 200              	.LVL36:
 161:main2.c       ****         UART_1_UartPutString("\t ");
 201              		.loc 1 161 0 discriminator 3
 202 009a 2548     		ldr	r0, .L10+28
 203 009c FFF7FEFF 		bl	UART_1_UartPutString
 204              	.LVL37:
 162:main2.c       ****         UART_1_UartPutString("CRC=");
 205              		.loc 1 162 0 discriminator 3
 206 00a0 2448     		ldr	r0, .L10+32
 207 00a2 FFF7FEFF 		bl	UART_1_UartPutString
 208              	.LVL38:
 163:main2.c       ****         uint16 tmp = CRC_ReadCRC();
 209              		.loc 1 163 0 discriminator 3
 210 00a6 FFF7FEFF 		bl	CRC_ReadCRC
 211              	.LVL39:
 212 00aa 021C     		mov	r2, r0
 213              	.LVL40:
 164:main2.c       ****         sprintf(str_out, "%08X", tmp);
 214              		.loc 1 164 0 discriminator 3
 215 00ac 6846     		mov	r0, sp
 216 00ae 1C49     		ldr	r1, .L10+12
 217 00b0 FFF7FEFF 		bl	sprintf
 218              	.LVL41:
 165:main2.c       ****         UART_1_UartPutString(str_out);
 219              		.loc 1 165 0 discriminator 3
 220 00b4 6846     		mov	r0, sp
 221 00b6 FFF7FEFF 		bl	UART_1_UartPutString
 222              	.LVL42:
 166:main2.c       ****         UART_1_UartPutString("\r\n");
 223              		.loc 1 166 0 discriminator 3
 224 00ba 1A48     		ldr	r0, .L10+16
 225 00bc FFF7FEFF 		bl	UART_1_UartPutString
 226              	.LVL43:
 167:main2.c       ****         // LCD_PrintInt16(CRC_ReadCRC());
 168:main2.c       ****         CyDelay(DISP_DELAY);
 227              		.loc 1 168 0 discriminator 3
 228 00c0 FA20     		mov	r0, #250
 229 00c2 8000     		lsl	r0, r0, #2
ARM GAS  C:\Users\Feiyang\AppData\Local\Temp\ccXXNWlQ.s 			page 8


 230 00c4 FFF7FEFF 		bl	CyDelay
 231              	.LVL44:
 169:main2.c       **** 
 170:main2.c       ****         /* Execute calculations */
 171:main2.c       ****         Clock1();
 232              		.loc 1 171 0 discriminator 3
 233 00c8 FFF7FEFF 		bl	Clock1
 234              	.LVL45:
 235              	.LBE2:
 156:main2.c       ****     {
 236              		.loc 1 156 0 discriminator 3
 237 00cc 0134     		add	r4, r4, #1
 238              	.LVL46:
 239 00ce E4B2     		uxtb	r4, r4
 240              	.LVL47:
 241              	.L6:
 156:main2.c       ****     {
 242              		.loc 1 156 0 is_stmt 0 discriminator 1
 243 00d0 142C     		cmp	r4, #20
 244 00d2 D7D9     		bls	.L7
 172:main2.c       ****     }
 173:main2.c       ****     
 174:main2.c       ****     /* Clear display after delay */
 175:main2.c       ****     CyDelay(DISP_DELAY * 3u);
 245              		.loc 1 175 0 is_stmt 1
 246 00d4 184C     		ldr	r4, .L10+36
 247              	.LVL48:
 248 00d6 201C     		mov	r0, r4
 249 00d8 FFF7FEFF 		bl	CyDelay
 250              	.LVL49:
 176:main2.c       ****     // LCD_ClearDisplay();
 177:main2.c       ****     
 178:main2.c       ****     // LCD_Position(0u,0u);
 179:main2.c       ****     // LCD_PrintString("Reset CRC....");
 180:main2.c       ****     CyDelay(DISP_DELAY * 3u);
 251              		.loc 1 180 0
 252 00dc 201C     		mov	r0, r4
 253 00de FFF7FEFF 		bl	CyDelay
 254              	.LVL50:
 181:main2.c       ****     // LCD_ClearDisplay();
 182:main2.c       ****     
 183:main2.c       ****     /* CRC reset */
 184:main2.c       ****     Reset_Gen_Write(1u);
 255              		.loc 1 184 0
 256 00e2 0120     		mov	r0, #1
 257 00e4 FFF7FEFF 		bl	Reset_Gen_Write
 258              	.LVL51:
 185:main2.c       ****     CyDelay(1u);
 259              		.loc 1 185 0
 260 00e8 0120     		mov	r0, #1
 261 00ea FFF7FEFF 		bl	CyDelay
 262              	.LVL52:
 186:main2.c       ****     Clock1();
 263              		.loc 1 186 0
 264 00ee FFF7FEFF 		bl	Clock1
 265              	.LVL53:
 187:main2.c       **** 
ARM GAS  C:\Users\Feiyang\AppData\Local\Temp\ccXXNWlQ.s 			page 9


 188:main2.c       ****     // LCD_Position(0u,0u);
 189:main2.c       ****     UART_1_UartPutString("CRC after Reset:");
 266              		.loc 1 189 0
 267 00f2 1248     		ldr	r0, .L10+40
 268 00f4 FFF7FEFF 		bl	UART_1_UartPutString
 269              	.LVL54:
 190:main2.c       **** 
 191:main2.c       ****     /* Display CRC values after reset and initialization */
 192:main2.c       ****     // LCD_Position(1u,0u);
 193:main2.c       ****     UART_1_UartPutString("CRC=");
 270              		.loc 1 193 0
 271 00f8 0E48     		ldr	r0, .L10+32
 272 00fa FFF7FEFF 		bl	UART_1_UartPutString
 273              	.LVL55:
 194:main2.c       ****     // LCD_PrintInt16(CRC_ReadCRC());
 195:main2.c       ****     uint16 tmp = CRC_ReadCRC();
 274              		.loc 1 195 0
 275 00fe FFF7FEFF 		bl	CRC_ReadCRC
 276              	.LVL56:
 277 0102 021C     		mov	r2, r0
 278              	.LVL57:
 196:main2.c       ****     sprintf(str_out, "%08X", tmp);
 279              		.loc 1 196 0
 280 0104 6846     		mov	r0, sp
 281 0106 0649     		ldr	r1, .L10+12
 282 0108 FFF7FEFF 		bl	sprintf
 283              	.LVL58:
 197:main2.c       ****     UART_1_UartPutString(str_out);
 284              		.loc 1 197 0
 285 010c 6846     		mov	r0, sp
 286 010e FFF7FEFF 		bl	UART_1_UartPutString
 287              	.LVL59:
 288              	.L8:
 198:main2.c       **** 
 199:main2.c       ****     /* Empty cycle*/
 200:main2.c       ****     for (;;) 
 201:main2.c       ****     {
 202:main2.c       ****     }
 289              		.loc 1 202 0 discriminator 1
 290 0112 FEE7     		b	.L8
 291              	.L11:
 292              		.align	2
 293              	.L10:
 294 0114 00000000 		.word	.LC0
 295 0118 FFFF0000 		.word	65535
 296 011c 08000000 		.word	.LC2
 297 0120 0C000000 		.word	.LC4
 298 0124 14000000 		.word	.LC6
 299 0128 18000000 		.word	.LC8
 300 012c 20000000 		.word	.LC10
 301 0130 28000000 		.word	.LC12
 302 0134 2C000000 		.word	.LC14
 303 0138 B80B0000 		.word	3000
 304 013c 34000000 		.word	.LC16
 305              		.cfi_endproc
 306              	.LFE35:
 307              		.size	main, .-main
ARM GAS  C:\Users\Feiyang\AppData\Local\Temp\ccXXNWlQ.s 			page 10


 308              		.section	.rodata.str1.4,"aMS",%progbits,1
 309              		.align	2
 310              	.LC0:
 311 0000 68656C6C 		.ascii	"hello\015\012\000"
 311      6F0D0A00 
 312              	.LC2:
 313 0008 53563D00 		.ascii	"SV=\000"
 314              	.LC4:
 315 000c 25303858 		.ascii	"%08X\000"
 315      00
 316 0011 000000   		.space	3
 317              	.LC6:
 318 0014 0D0A00   		.ascii	"\015\012\000"
 319 0017 00       		.space	1
 320              	.LC8:
 321 0018 2043616C 		.ascii	" Calc=\000"
 321      633D00
 322 001f 00       		.space	1
 323              	.LC10:
 324 0020 25303869 		.ascii	"%08i\000"
 324      00
 325 0025 000000   		.space	3
 326              	.LC12:
 327 0028 092000   		.ascii	"\011 \000"
 328 002b 00       		.space	1
 329              	.LC14:
 330 002c 4352433D 		.ascii	"CRC=\000"
 330      00
 331 0031 000000   		.space	3
 332              	.LC16:
 333 0034 43524320 		.ascii	"CRC after Reset:\000"
 333      61667465 
 333      72205265 
 333      7365743A 
 333      00
 334 0045 000000   		.text
 335              	.Letext0:
 336              		.file 2 "Generated_Source\\PSoC4/cytypes.h"
 337              		.file 3 "Generated_Source\\PSoC4/Clock_Gen.h"
 338              		.file 4 "Generated_Source\\PSoC4/CyLib.h"
 339              		.file 5 "Generated_Source\\PSoC4/UART_1_SPI_UART.h"
 340              		.file 6 "<built-in>"
 341              		.file 7 "Generated_Source\\PSoC4/Reset_Gen.h"
 342              		.file 8 "Generated_Source\\PSoC4/UART_1.h"
 343              		.file 9 "Generated_Source\\PSoC4/CRC.h"