ARM GAS  C:\Users\Feiyang\AppData\Local\Temp\cccTYYiw.s 			page 1


   1              		.cpu cortex-m0
   2              		.fpu softvfp
   3              		.eabi_attribute 20, 1
   4              		.eabi_attribute 21, 1
   5              		.eabi_attribute 23, 3
   6              		.eabi_attribute 24, 1
   7              		.eabi_attribute 25, 1
   8              		.eabi_attribute 26, 1
   9              		.eabi_attribute 30, 1
  10              		.eabi_attribute 34, 0
  11              		.eabi_attribute 18, 4
  12              		.code	16
  13              		.file	"UART_2_UART.c"
  14              		.text
  15              	.Ltext0:
  16              		.cfi_sections	.debug_frame
  17              		.section	.text.UART_2_UartInit,"ax",%progbits
  18              		.align	2
  19              		.global	UART_2_UartInit
  20              		.code	16
  21              		.thumb_func
  22              		.type	UART_2_UartInit, %function
  23              	UART_2_UartInit:
  24              	.LFB0:
  25              		.file 1 "Generated_Source\\PSoC4\\UART_2_UART.c"
   1:Generated_Source\PSoC4/UART_2_UART.c **** /***************************************************************************//**
   2:Generated_Source\PSoC4/UART_2_UART.c **** * \file UART_2_UART.c
   3:Generated_Source\PSoC4/UART_2_UART.c **** * \version 3.20
   4:Generated_Source\PSoC4/UART_2_UART.c **** *
   5:Generated_Source\PSoC4/UART_2_UART.c **** * \brief
   6:Generated_Source\PSoC4/UART_2_UART.c **** *  This file provides the source code to the API for the SCB Component in
   7:Generated_Source\PSoC4/UART_2_UART.c **** *  UART mode.
   8:Generated_Source\PSoC4/UART_2_UART.c **** *
   9:Generated_Source\PSoC4/UART_2_UART.c **** * Note:
  10:Generated_Source\PSoC4/UART_2_UART.c **** *
  11:Generated_Source\PSoC4/UART_2_UART.c **** *******************************************************************************
  12:Generated_Source\PSoC4/UART_2_UART.c **** * \copyright
  13:Generated_Source\PSoC4/UART_2_UART.c **** * Copyright 2013-2016, Cypress Semiconductor Corporation.  All rights reserved.
  14:Generated_Source\PSoC4/UART_2_UART.c **** * You may use this file only in accordance with the license, terms, conditions,
  15:Generated_Source\PSoC4/UART_2_UART.c **** * disclaimers, and limitations in the end user license agreement accompanying
  16:Generated_Source\PSoC4/UART_2_UART.c **** * the software package with which this file was provided.
  17:Generated_Source\PSoC4/UART_2_UART.c **** *******************************************************************************/
  18:Generated_Source\PSoC4/UART_2_UART.c **** 
  19:Generated_Source\PSoC4/UART_2_UART.c **** #include "UART_2_PVT.h"
  20:Generated_Source\PSoC4/UART_2_UART.c **** #include "UART_2_SPI_UART_PVT.h"
  21:Generated_Source\PSoC4/UART_2_UART.c **** #include "cyapicallbacks.h"
  22:Generated_Source\PSoC4/UART_2_UART.c **** 
  23:Generated_Source\PSoC4/UART_2_UART.c **** #if (UART_2_UART_WAKE_ENABLE_CONST && UART_2_UART_RX_WAKEUP_IRQ)
  24:Generated_Source\PSoC4/UART_2_UART.c ****     /**
  25:Generated_Source\PSoC4/UART_2_UART.c ****     * \addtogroup group_globals
  26:Generated_Source\PSoC4/UART_2_UART.c ****     * \{
  27:Generated_Source\PSoC4/UART_2_UART.c ****     */
  28:Generated_Source\PSoC4/UART_2_UART.c ****     /** This global variable determines whether to enable Skip Start
  29:Generated_Source\PSoC4/UART_2_UART.c ****     * functionality when UART_2_Sleep() function is called:
  30:Generated_Source\PSoC4/UART_2_UART.c ****     * 0 – disable, other values – enable. Default value is 1.
  31:Generated_Source\PSoC4/UART_2_UART.c ****     * It is only available when Enable wakeup from Deep Sleep Mode is enabled.
  32:Generated_Source\PSoC4/UART_2_UART.c ****     */
ARM GAS  C:\Users\Feiyang\AppData\Local\Temp\cccTYYiw.s 			page 2


  33:Generated_Source\PSoC4/UART_2_UART.c ****     uint8 UART_2_skipStart = 1u;
  34:Generated_Source\PSoC4/UART_2_UART.c ****     /** \} globals */
  35:Generated_Source\PSoC4/UART_2_UART.c **** #endif /* (UART_2_UART_WAKE_ENABLE_CONST && UART_2_UART_RX_WAKEUP_IRQ) */
  36:Generated_Source\PSoC4/UART_2_UART.c **** 
  37:Generated_Source\PSoC4/UART_2_UART.c **** #if(UART_2_SCB_MODE_UNCONFIG_CONST_CFG)
  38:Generated_Source\PSoC4/UART_2_UART.c **** 
  39:Generated_Source\PSoC4/UART_2_UART.c ****     /***************************************
  40:Generated_Source\PSoC4/UART_2_UART.c ****     *  Configuration Structure Initialization
  41:Generated_Source\PSoC4/UART_2_UART.c ****     ***************************************/
  42:Generated_Source\PSoC4/UART_2_UART.c **** 
  43:Generated_Source\PSoC4/UART_2_UART.c ****     const UART_2_UART_INIT_STRUCT UART_2_configUart =
  44:Generated_Source\PSoC4/UART_2_UART.c ****     {
  45:Generated_Source\PSoC4/UART_2_UART.c ****         UART_2_UART_SUB_MODE,
  46:Generated_Source\PSoC4/UART_2_UART.c ****         UART_2_UART_DIRECTION,
  47:Generated_Source\PSoC4/UART_2_UART.c ****         UART_2_UART_DATA_BITS_NUM,
  48:Generated_Source\PSoC4/UART_2_UART.c ****         UART_2_UART_PARITY_TYPE,
  49:Generated_Source\PSoC4/UART_2_UART.c ****         UART_2_UART_STOP_BITS_NUM,
  50:Generated_Source\PSoC4/UART_2_UART.c ****         UART_2_UART_OVS_FACTOR,
  51:Generated_Source\PSoC4/UART_2_UART.c ****         UART_2_UART_IRDA_LOW_POWER,
  52:Generated_Source\PSoC4/UART_2_UART.c ****         UART_2_UART_MEDIAN_FILTER_ENABLE,
  53:Generated_Source\PSoC4/UART_2_UART.c ****         UART_2_UART_RETRY_ON_NACK,
  54:Generated_Source\PSoC4/UART_2_UART.c ****         UART_2_UART_IRDA_POLARITY,
  55:Generated_Source\PSoC4/UART_2_UART.c ****         UART_2_UART_DROP_ON_PARITY_ERR,
  56:Generated_Source\PSoC4/UART_2_UART.c ****         UART_2_UART_DROP_ON_FRAME_ERR,
  57:Generated_Source\PSoC4/UART_2_UART.c ****         UART_2_UART_WAKE_ENABLE,
  58:Generated_Source\PSoC4/UART_2_UART.c ****         0u,
  59:Generated_Source\PSoC4/UART_2_UART.c ****         NULL,
  60:Generated_Source\PSoC4/UART_2_UART.c ****         0u,
  61:Generated_Source\PSoC4/UART_2_UART.c ****         NULL,
  62:Generated_Source\PSoC4/UART_2_UART.c ****         UART_2_UART_MP_MODE_ENABLE,
  63:Generated_Source\PSoC4/UART_2_UART.c ****         UART_2_UART_MP_ACCEPT_ADDRESS,
  64:Generated_Source\PSoC4/UART_2_UART.c ****         UART_2_UART_MP_RX_ADDRESS,
  65:Generated_Source\PSoC4/UART_2_UART.c ****         UART_2_UART_MP_RX_ADDRESS_MASK,
  66:Generated_Source\PSoC4/UART_2_UART.c ****         (uint32) UART_2_SCB_IRQ_INTERNAL,
  67:Generated_Source\PSoC4/UART_2_UART.c ****         UART_2_UART_INTR_RX_MASK,
  68:Generated_Source\PSoC4/UART_2_UART.c ****         UART_2_UART_RX_TRIGGER_LEVEL,
  69:Generated_Source\PSoC4/UART_2_UART.c ****         UART_2_UART_INTR_TX_MASK,
  70:Generated_Source\PSoC4/UART_2_UART.c ****         UART_2_UART_TX_TRIGGER_LEVEL,
  71:Generated_Source\PSoC4/UART_2_UART.c ****         (uint8) UART_2_UART_BYTE_MODE_ENABLE,
  72:Generated_Source\PSoC4/UART_2_UART.c ****         (uint8) UART_2_UART_CTS_ENABLE,
  73:Generated_Source\PSoC4/UART_2_UART.c ****         (uint8) UART_2_UART_CTS_POLARITY,
  74:Generated_Source\PSoC4/UART_2_UART.c ****         (uint8) UART_2_UART_RTS_POLARITY,
  75:Generated_Source\PSoC4/UART_2_UART.c ****         (uint8) UART_2_UART_RTS_FIFO_LEVEL
  76:Generated_Source\PSoC4/UART_2_UART.c ****     };
  77:Generated_Source\PSoC4/UART_2_UART.c **** 
  78:Generated_Source\PSoC4/UART_2_UART.c **** 
  79:Generated_Source\PSoC4/UART_2_UART.c ****     /*******************************************************************************
  80:Generated_Source\PSoC4/UART_2_UART.c ****     * Function Name: UART_2_UartInit
  81:Generated_Source\PSoC4/UART_2_UART.c ****     ****************************************************************************//**
  82:Generated_Source\PSoC4/UART_2_UART.c ****     *
  83:Generated_Source\PSoC4/UART_2_UART.c ****     *  Configures the UART_2 for UART operation.
  84:Generated_Source\PSoC4/UART_2_UART.c ****     *
  85:Generated_Source\PSoC4/UART_2_UART.c ****     *  This function is intended specifically to be used when the UART_2
  86:Generated_Source\PSoC4/UART_2_UART.c ****     *  configuration is set to “Unconfigured UART_2” in the customizer.
  87:Generated_Source\PSoC4/UART_2_UART.c ****     *  After initializing the UART_2 in UART mode using this function,
  88:Generated_Source\PSoC4/UART_2_UART.c ****     *  the component can be enabled using the UART_2_Start() or
  89:Generated_Source\PSoC4/UART_2_UART.c ****     * UART_2_Enable() function.
ARM GAS  C:\Users\Feiyang\AppData\Local\Temp\cccTYYiw.s 			page 3


  90:Generated_Source\PSoC4/UART_2_UART.c ****     *  This function uses a pointer to a structure that provides the configuration
  91:Generated_Source\PSoC4/UART_2_UART.c ****     *  settings. This structure contains the same information that would otherwise
  92:Generated_Source\PSoC4/UART_2_UART.c ****     *  be provided by the customizer settings.
  93:Generated_Source\PSoC4/UART_2_UART.c ****     *
  94:Generated_Source\PSoC4/UART_2_UART.c ****     *  \param config: pointer to a structure that contains the following list of
  95:Generated_Source\PSoC4/UART_2_UART.c ****     *   fields. These fields match the selections available in the customizer.
  96:Generated_Source\PSoC4/UART_2_UART.c ****     *   Refer to the customizer for further description of the settings.
  97:Generated_Source\PSoC4/UART_2_UART.c ****     *
  98:Generated_Source\PSoC4/UART_2_UART.c ****     *******************************************************************************/
  99:Generated_Source\PSoC4/UART_2_UART.c ****     void UART_2_UartInit(const UART_2_UART_INIT_STRUCT *config)
 100:Generated_Source\PSoC4/UART_2_UART.c ****     {
 101:Generated_Source\PSoC4/UART_2_UART.c ****         uint32 pinsConfig;
 102:Generated_Source\PSoC4/UART_2_UART.c **** 
 103:Generated_Source\PSoC4/UART_2_UART.c ****         if (NULL == config)
 104:Generated_Source\PSoC4/UART_2_UART.c ****         {
 105:Generated_Source\PSoC4/UART_2_UART.c ****             CYASSERT(0u != 0u); /* Halt execution due to bad function parameter */
 106:Generated_Source\PSoC4/UART_2_UART.c ****         }
 107:Generated_Source\PSoC4/UART_2_UART.c ****         else
 108:Generated_Source\PSoC4/UART_2_UART.c ****         {
 109:Generated_Source\PSoC4/UART_2_UART.c ****             /* Get direction to configure UART pins: TX, RX or TX+RX */
 110:Generated_Source\PSoC4/UART_2_UART.c ****             pinsConfig  = config->direction;
 111:Generated_Source\PSoC4/UART_2_UART.c **** 
 112:Generated_Source\PSoC4/UART_2_UART.c ****         #if !(UART_2_CY_SCBIP_V0 || UART_2_CY_SCBIP_V1)
 113:Generated_Source\PSoC4/UART_2_UART.c ****             /* Add RTS and CTS pins to configure */
 114:Generated_Source\PSoC4/UART_2_UART.c ****             pinsConfig |= (0u != config->rtsRxFifoLevel) ? (UART_2_UART_RTS_PIN_ENABLE) : (0u);
 115:Generated_Source\PSoC4/UART_2_UART.c ****             pinsConfig |= (0u != config->enableCts)      ? (UART_2_UART_CTS_PIN_ENABLE) : (0u);
 116:Generated_Source\PSoC4/UART_2_UART.c ****         #endif /* !(UART_2_CY_SCBIP_V0 || UART_2_CY_SCBIP_V1) */
 117:Generated_Source\PSoC4/UART_2_UART.c **** 
 118:Generated_Source\PSoC4/UART_2_UART.c ****             /* Configure pins */
 119:Generated_Source\PSoC4/UART_2_UART.c ****             UART_2_SetPins(UART_2_SCB_MODE_UART, config->mode, pinsConfig);
 120:Generated_Source\PSoC4/UART_2_UART.c **** 
 121:Generated_Source\PSoC4/UART_2_UART.c ****             /* Store internal configuration */
 122:Generated_Source\PSoC4/UART_2_UART.c ****             UART_2_scbMode       = (uint8) UART_2_SCB_MODE_UART;
 123:Generated_Source\PSoC4/UART_2_UART.c ****             UART_2_scbEnableWake = (uint8) config->enableWake;
 124:Generated_Source\PSoC4/UART_2_UART.c ****             UART_2_scbEnableIntr = (uint8) config->enableInterrupt;
 125:Generated_Source\PSoC4/UART_2_UART.c **** 
 126:Generated_Source\PSoC4/UART_2_UART.c ****             /* Set RX direction internal variables */
 127:Generated_Source\PSoC4/UART_2_UART.c ****             UART_2_rxBuffer      =         config->rxBuffer;
 128:Generated_Source\PSoC4/UART_2_UART.c ****             UART_2_rxDataBits    = (uint8) config->dataBits;
 129:Generated_Source\PSoC4/UART_2_UART.c ****             UART_2_rxBufferSize  = (uint8) config->rxBufferSize;
 130:Generated_Source\PSoC4/UART_2_UART.c **** 
 131:Generated_Source\PSoC4/UART_2_UART.c ****             /* Set TX direction internal variables */
 132:Generated_Source\PSoC4/UART_2_UART.c ****             UART_2_txBuffer      =         config->txBuffer;
 133:Generated_Source\PSoC4/UART_2_UART.c ****             UART_2_txDataBits    = (uint8) config->dataBits;
 134:Generated_Source\PSoC4/UART_2_UART.c ****             UART_2_txBufferSize  = (uint8) config->txBufferSize;
 135:Generated_Source\PSoC4/UART_2_UART.c **** 
 136:Generated_Source\PSoC4/UART_2_UART.c ****             /* Configure UART interface */
 137:Generated_Source\PSoC4/UART_2_UART.c ****             if(UART_2_UART_MODE_IRDA == config->mode)
 138:Generated_Source\PSoC4/UART_2_UART.c ****             {
 139:Generated_Source\PSoC4/UART_2_UART.c ****                 /* OVS settings: IrDA */
 140:Generated_Source\PSoC4/UART_2_UART.c ****                 UART_2_CTRL_REG  = ((0u != config->enableIrdaLowPower) ?
 141:Generated_Source\PSoC4/UART_2_UART.c ****                                                 (UART_2_UART_GET_CTRL_OVS_IRDA_LP(config->oversampl
 142:Generated_Source\PSoC4/UART_2_UART.c ****                                                 (UART_2_CTRL_OVS_IRDA_OVS16));
 143:Generated_Source\PSoC4/UART_2_UART.c ****             }
 144:Generated_Source\PSoC4/UART_2_UART.c ****             else
 145:Generated_Source\PSoC4/UART_2_UART.c ****             {
 146:Generated_Source\PSoC4/UART_2_UART.c ****                 /* OVS settings: UART and SmartCard */
ARM GAS  C:\Users\Feiyang\AppData\Local\Temp\cccTYYiw.s 			page 4


 147:Generated_Source\PSoC4/UART_2_UART.c ****                 UART_2_CTRL_REG  = UART_2_GET_CTRL_OVS(config->oversample);
 148:Generated_Source\PSoC4/UART_2_UART.c ****             }
 149:Generated_Source\PSoC4/UART_2_UART.c **** 
 150:Generated_Source\PSoC4/UART_2_UART.c ****             UART_2_CTRL_REG     |= UART_2_GET_CTRL_BYTE_MODE  (config->enableByteMode)      |
 151:Generated_Source\PSoC4/UART_2_UART.c ****                                              UART_2_GET_CTRL_ADDR_ACCEPT(config->multiprocAcceptAdd
 152:Generated_Source\PSoC4/UART_2_UART.c ****                                              UART_2_CTRL_UART;
 153:Generated_Source\PSoC4/UART_2_UART.c **** 
 154:Generated_Source\PSoC4/UART_2_UART.c ****             /* Configure sub-mode: UART, SmartCard or IrDA */
 155:Generated_Source\PSoC4/UART_2_UART.c ****             UART_2_UART_CTRL_REG = UART_2_GET_UART_CTRL_MODE(config->mode);
 156:Generated_Source\PSoC4/UART_2_UART.c **** 
 157:Generated_Source\PSoC4/UART_2_UART.c ****             /* Configure RX direction */
 158:Generated_Source\PSoC4/UART_2_UART.c ****             UART_2_UART_RX_CTRL_REG = UART_2_GET_UART_RX_CTRL_MODE(config->stopBits)              |
 159:Generated_Source\PSoC4/UART_2_UART.c ****                                         UART_2_GET_UART_RX_CTRL_POLARITY(config->enableInvertedRx) 
 160:Generated_Source\PSoC4/UART_2_UART.c ****                                         UART_2_GET_UART_RX_CTRL_MP_MODE(config->enableMultiproc)   
 161:Generated_Source\PSoC4/UART_2_UART.c ****                                         UART_2_GET_UART_RX_CTRL_DROP_ON_PARITY_ERR(config->dropOnPa
 162:Generated_Source\PSoC4/UART_2_UART.c ****                                         UART_2_GET_UART_RX_CTRL_DROP_ON_FRAME_ERR(config->dropOnFra
 163:Generated_Source\PSoC4/UART_2_UART.c **** 
 164:Generated_Source\PSoC4/UART_2_UART.c ****             if(UART_2_UART_PARITY_NONE != config->parity)
 165:Generated_Source\PSoC4/UART_2_UART.c ****             {
 166:Generated_Source\PSoC4/UART_2_UART.c ****                UART_2_UART_RX_CTRL_REG |= UART_2_GET_UART_RX_CTRL_PARITY(config->parity) |
 167:Generated_Source\PSoC4/UART_2_UART.c ****                                                     UART_2_UART_RX_CTRL_PARITY_ENABLED;
 168:Generated_Source\PSoC4/UART_2_UART.c ****             }
 169:Generated_Source\PSoC4/UART_2_UART.c **** 
 170:Generated_Source\PSoC4/UART_2_UART.c ****             UART_2_RX_CTRL_REG      = UART_2_GET_RX_CTRL_DATA_WIDTH(config->dataBits)       |
 171:Generated_Source\PSoC4/UART_2_UART.c ****                                                 UART_2_GET_RX_CTRL_MEDIAN(config->enableMedianFilte
 172:Generated_Source\PSoC4/UART_2_UART.c ****                                                 UART_2_GET_UART_RX_CTRL_ENABLED(config->direction);
 173:Generated_Source\PSoC4/UART_2_UART.c **** 
 174:Generated_Source\PSoC4/UART_2_UART.c ****             UART_2_RX_FIFO_CTRL_REG = UART_2_GET_RX_FIFO_CTRL_TRIGGER_LEVEL(config->rxTriggerLevel)
 175:Generated_Source\PSoC4/UART_2_UART.c **** 
 176:Generated_Source\PSoC4/UART_2_UART.c ****             /* Configure MP address */
 177:Generated_Source\PSoC4/UART_2_UART.c ****             UART_2_RX_MATCH_REG     = UART_2_GET_RX_MATCH_ADDR(config->multiprocAddr) |
 178:Generated_Source\PSoC4/UART_2_UART.c ****                                                 UART_2_GET_RX_MATCH_MASK(config->multiprocAddrMask)
 179:Generated_Source\PSoC4/UART_2_UART.c **** 
 180:Generated_Source\PSoC4/UART_2_UART.c ****             /* Configure RX direction */
 181:Generated_Source\PSoC4/UART_2_UART.c ****             UART_2_UART_TX_CTRL_REG = UART_2_GET_UART_TX_CTRL_MODE(config->stopBits) |
 182:Generated_Source\PSoC4/UART_2_UART.c ****                                                 UART_2_GET_UART_TX_CTRL_RETRY_NACK(config->enableRe
 183:Generated_Source\PSoC4/UART_2_UART.c **** 
 184:Generated_Source\PSoC4/UART_2_UART.c ****             if(UART_2_UART_PARITY_NONE != config->parity)
 185:Generated_Source\PSoC4/UART_2_UART.c ****             {
 186:Generated_Source\PSoC4/UART_2_UART.c ****                UART_2_UART_TX_CTRL_REG |= UART_2_GET_UART_TX_CTRL_PARITY(config->parity) |
 187:Generated_Source\PSoC4/UART_2_UART.c ****                                                     UART_2_UART_TX_CTRL_PARITY_ENABLED;
 188:Generated_Source\PSoC4/UART_2_UART.c ****             }
 189:Generated_Source\PSoC4/UART_2_UART.c **** 
 190:Generated_Source\PSoC4/UART_2_UART.c ****             UART_2_TX_CTRL_REG      = UART_2_GET_TX_CTRL_DATA_WIDTH(config->dataBits)    |
 191:Generated_Source\PSoC4/UART_2_UART.c ****                                                 UART_2_GET_UART_TX_CTRL_ENABLED(config->direction);
 192:Generated_Source\PSoC4/UART_2_UART.c **** 
 193:Generated_Source\PSoC4/UART_2_UART.c ****             UART_2_TX_FIFO_CTRL_REG = UART_2_GET_TX_FIFO_CTRL_TRIGGER_LEVEL(config->txTriggerLevel)
 194:Generated_Source\PSoC4/UART_2_UART.c **** 
 195:Generated_Source\PSoC4/UART_2_UART.c ****         #if !(UART_2_CY_SCBIP_V0 || UART_2_CY_SCBIP_V1)
 196:Generated_Source\PSoC4/UART_2_UART.c ****             UART_2_UART_FLOW_CTRL_REG = UART_2_GET_UART_FLOW_CTRL_CTS_ENABLE(config->enableCts) | \
 197:Generated_Source\PSoC4/UART_2_UART.c ****                                             UART_2_GET_UART_FLOW_CTRL_CTS_POLARITY (config->ctsPola
 198:Generated_Source\PSoC4/UART_2_UART.c ****                                             UART_2_GET_UART_FLOW_CTRL_RTS_POLARITY (config->rtsPola
 199:Generated_Source\PSoC4/UART_2_UART.c ****                                             UART_2_GET_UART_FLOW_CTRL_TRIGGER_LEVEL(config->rtsRxFi
 200:Generated_Source\PSoC4/UART_2_UART.c ****         #endif /* !(UART_2_CY_SCBIP_V0 || UART_2_CY_SCBIP_V1) */
 201:Generated_Source\PSoC4/UART_2_UART.c **** 
 202:Generated_Source\PSoC4/UART_2_UART.c ****             /* Configure interrupt with UART handler but do not enable it */
 203:Generated_Source\PSoC4/UART_2_UART.c ****             CyIntDisable    (UART_2_ISR_NUMBER);
ARM GAS  C:\Users\Feiyang\AppData\Local\Temp\cccTYYiw.s 			page 5


 204:Generated_Source\PSoC4/UART_2_UART.c ****             CyIntSetPriority(UART_2_ISR_NUMBER, UART_2_ISR_PRIORITY);
 205:Generated_Source\PSoC4/UART_2_UART.c ****             (void) CyIntSetVector(UART_2_ISR_NUMBER, &UART_2_SPI_UART_ISR);
 206:Generated_Source\PSoC4/UART_2_UART.c **** 
 207:Generated_Source\PSoC4/UART_2_UART.c ****             /* Configure WAKE interrupt */
 208:Generated_Source\PSoC4/UART_2_UART.c ****         #if(UART_2_UART_RX_WAKEUP_IRQ)
 209:Generated_Source\PSoC4/UART_2_UART.c ****             CyIntDisable    (UART_2_RX_WAKE_ISR_NUMBER);
 210:Generated_Source\PSoC4/UART_2_UART.c ****             CyIntSetPriority(UART_2_RX_WAKE_ISR_NUMBER, UART_2_RX_WAKE_ISR_PRIORITY);
 211:Generated_Source\PSoC4/UART_2_UART.c ****             (void) CyIntSetVector(UART_2_RX_WAKE_ISR_NUMBER, &UART_2_UART_WAKEUP_ISR);
 212:Generated_Source\PSoC4/UART_2_UART.c ****         #endif /* (UART_2_UART_RX_WAKEUP_IRQ) */
 213:Generated_Source\PSoC4/UART_2_UART.c **** 
 214:Generated_Source\PSoC4/UART_2_UART.c ****             /* Configure interrupt sources */
 215:Generated_Source\PSoC4/UART_2_UART.c ****             UART_2_INTR_I2C_EC_MASK_REG = UART_2_NO_INTR_SOURCES;
 216:Generated_Source\PSoC4/UART_2_UART.c ****             UART_2_INTR_SPI_EC_MASK_REG = UART_2_NO_INTR_SOURCES;
 217:Generated_Source\PSoC4/UART_2_UART.c ****             UART_2_INTR_SLAVE_MASK_REG  = UART_2_NO_INTR_SOURCES;
 218:Generated_Source\PSoC4/UART_2_UART.c ****             UART_2_INTR_MASTER_MASK_REG = UART_2_NO_INTR_SOURCES;
 219:Generated_Source\PSoC4/UART_2_UART.c ****             UART_2_INTR_RX_MASK_REG     = config->rxInterruptMask;
 220:Generated_Source\PSoC4/UART_2_UART.c ****             UART_2_INTR_TX_MASK_REG     = config->txInterruptMask;
 221:Generated_Source\PSoC4/UART_2_UART.c ****         
 222:Generated_Source\PSoC4/UART_2_UART.c ****             /* Configure TX interrupt sources to restore. */
 223:Generated_Source\PSoC4/UART_2_UART.c ****             UART_2_IntrTxMask = LO16(UART_2_INTR_TX_MASK_REG);
 224:Generated_Source\PSoC4/UART_2_UART.c **** 
 225:Generated_Source\PSoC4/UART_2_UART.c ****             /* Clear RX buffer indexes */
 226:Generated_Source\PSoC4/UART_2_UART.c ****             UART_2_rxBufferHead     = 0u;
 227:Generated_Source\PSoC4/UART_2_UART.c ****             UART_2_rxBufferTail     = 0u;
 228:Generated_Source\PSoC4/UART_2_UART.c ****             UART_2_rxBufferOverflow = 0u;
 229:Generated_Source\PSoC4/UART_2_UART.c **** 
 230:Generated_Source\PSoC4/UART_2_UART.c ****             /* Clear TX buffer indexes */
 231:Generated_Source\PSoC4/UART_2_UART.c ****             UART_2_txBufferHead = 0u;
 232:Generated_Source\PSoC4/UART_2_UART.c ****             UART_2_txBufferTail = 0u;
 233:Generated_Source\PSoC4/UART_2_UART.c ****         }
 234:Generated_Source\PSoC4/UART_2_UART.c ****     }
 235:Generated_Source\PSoC4/UART_2_UART.c **** 
 236:Generated_Source\PSoC4/UART_2_UART.c **** #else
 237:Generated_Source\PSoC4/UART_2_UART.c **** 
 238:Generated_Source\PSoC4/UART_2_UART.c ****     /*******************************************************************************
 239:Generated_Source\PSoC4/UART_2_UART.c ****     * Function Name: UART_2_UartInit
 240:Generated_Source\PSoC4/UART_2_UART.c ****     ****************************************************************************//**
 241:Generated_Source\PSoC4/UART_2_UART.c ****     *
 242:Generated_Source\PSoC4/UART_2_UART.c ****     *  Configures the SCB for the UART operation.
 243:Generated_Source\PSoC4/UART_2_UART.c ****     *
 244:Generated_Source\PSoC4/UART_2_UART.c ****     *******************************************************************************/
 245:Generated_Source\PSoC4/UART_2_UART.c ****     void UART_2_UartInit(void)
 246:Generated_Source\PSoC4/UART_2_UART.c ****     {
  26              		.loc 1 246 0
  27              		.cfi_startproc
  28 0000 10B5     		push	{r4, lr}
  29              		.cfi_def_cfa_offset 8
  30              		.cfi_offset 4, -8
  31              		.cfi_offset 14, -4
 247:Generated_Source\PSoC4/UART_2_UART.c ****         /* Configure UART interface */
 248:Generated_Source\PSoC4/UART_2_UART.c ****         UART_2_CTRL_REG = UART_2_UART_DEFAULT_CTRL;
  32              		.loc 1 248 0
  33 0002 134A     		ldr	r2, .L2
  34 0004 134B     		ldr	r3, .L2+4
  35 0006 1A60     		str	r2, [r3]
 249:Generated_Source\PSoC4/UART_2_UART.c **** 
 250:Generated_Source\PSoC4/UART_2_UART.c ****         /* Configure sub-mode: UART, SmartCard or IrDA */
ARM GAS  C:\Users\Feiyang\AppData\Local\Temp\cccTYYiw.s 			page 6


 251:Generated_Source\PSoC4/UART_2_UART.c ****         UART_2_UART_CTRL_REG = UART_2_UART_DEFAULT_UART_CTRL;
  36              		.loc 1 251 0
  37 0008 0023     		mov	r3, #0
  38 000a 134A     		ldr	r2, .L2+8
  39 000c 1360     		str	r3, [r2]
 252:Generated_Source\PSoC4/UART_2_UART.c **** 
 253:Generated_Source\PSoC4/UART_2_UART.c ****         /* Configure RX direction */
 254:Generated_Source\PSoC4/UART_2_UART.c ****         UART_2_UART_RX_CTRL_REG = UART_2_UART_DEFAULT_UART_RX_CTRL;
  40              		.loc 1 254 0
  41 000e 0121     		mov	r1, #1
  42 0010 124A     		ldr	r2, .L2+12
  43 0012 1160     		str	r1, [r2]
 255:Generated_Source\PSoC4/UART_2_UART.c ****         UART_2_RX_CTRL_REG      = UART_2_UART_DEFAULT_RX_CTRL;
  44              		.loc 1 255 0
  45 0014 124A     		ldr	r2, .L2+16
  46 0016 1348     		ldr	r0, .L2+20
  47 0018 0260     		str	r2, [r0]
 256:Generated_Source\PSoC4/UART_2_UART.c ****         UART_2_RX_FIFO_CTRL_REG = UART_2_UART_DEFAULT_RX_FIFO_CTRL;
  48              		.loc 1 256 0
  49 001a 0724     		mov	r4, #7
  50 001c 1248     		ldr	r0, .L2+24
  51 001e 0460     		str	r4, [r0]
 257:Generated_Source\PSoC4/UART_2_UART.c ****         UART_2_RX_MATCH_REG     = UART_2_UART_DEFAULT_RX_MATCH_REG;
  52              		.loc 1 257 0
  53 0020 1248     		ldr	r0, .L2+28
  54 0022 0360     		str	r3, [r0]
 258:Generated_Source\PSoC4/UART_2_UART.c **** 
 259:Generated_Source\PSoC4/UART_2_UART.c ****         /* Configure TX direction */
 260:Generated_Source\PSoC4/UART_2_UART.c ****         UART_2_UART_TX_CTRL_REG = UART_2_UART_DEFAULT_UART_TX_CTRL;
  55              		.loc 1 260 0
  56 0024 1248     		ldr	r0, .L2+32
  57 0026 0160     		str	r1, [r0]
 261:Generated_Source\PSoC4/UART_2_UART.c ****         UART_2_TX_CTRL_REG      = UART_2_UART_DEFAULT_TX_CTRL;
  58              		.loc 1 261 0
  59 0028 1249     		ldr	r1, .L2+36
  60 002a 0A60     		str	r2, [r1]
 262:Generated_Source\PSoC4/UART_2_UART.c ****         UART_2_TX_FIFO_CTRL_REG = UART_2_UART_DEFAULT_TX_FIFO_CTRL;
  61              		.loc 1 262 0
  62 002c 124A     		ldr	r2, .L2+40
  63 002e 1360     		str	r3, [r2]
 263:Generated_Source\PSoC4/UART_2_UART.c **** 
 264:Generated_Source\PSoC4/UART_2_UART.c ****     #if !(UART_2_CY_SCBIP_V0 || UART_2_CY_SCBIP_V1)
 265:Generated_Source\PSoC4/UART_2_UART.c ****         UART_2_UART_FLOW_CTRL_REG = UART_2_UART_DEFAULT_FLOW_CTRL;
 266:Generated_Source\PSoC4/UART_2_UART.c ****     #endif /* !(UART_2_CY_SCBIP_V0 || UART_2_CY_SCBIP_V1) */
 267:Generated_Source\PSoC4/UART_2_UART.c **** 
 268:Generated_Source\PSoC4/UART_2_UART.c ****         /* Configure interrupt with UART handler but do not enable it */
 269:Generated_Source\PSoC4/UART_2_UART.c ****     #if(UART_2_SCB_IRQ_INTERNAL)
 270:Generated_Source\PSoC4/UART_2_UART.c ****         CyIntDisable    (UART_2_ISR_NUMBER);
 271:Generated_Source\PSoC4/UART_2_UART.c ****         CyIntSetPriority(UART_2_ISR_NUMBER, UART_2_ISR_PRIORITY);
 272:Generated_Source\PSoC4/UART_2_UART.c ****         (void) CyIntSetVector(UART_2_ISR_NUMBER, &UART_2_SPI_UART_ISR);
 273:Generated_Source\PSoC4/UART_2_UART.c ****     #endif /* (UART_2_SCB_IRQ_INTERNAL) */
 274:Generated_Source\PSoC4/UART_2_UART.c **** 
 275:Generated_Source\PSoC4/UART_2_UART.c ****         /* Configure WAKE interrupt */
 276:Generated_Source\PSoC4/UART_2_UART.c ****     #if(UART_2_UART_RX_WAKEUP_IRQ)
 277:Generated_Source\PSoC4/UART_2_UART.c ****         CyIntDisable    (UART_2_RX_WAKE_ISR_NUMBER);
 278:Generated_Source\PSoC4/UART_2_UART.c ****         CyIntSetPriority(UART_2_RX_WAKE_ISR_NUMBER, UART_2_RX_WAKE_ISR_PRIORITY);
 279:Generated_Source\PSoC4/UART_2_UART.c ****         (void) CyIntSetVector(UART_2_RX_WAKE_ISR_NUMBER, &UART_2_UART_WAKEUP_ISR);
ARM GAS  C:\Users\Feiyang\AppData\Local\Temp\cccTYYiw.s 			page 7


 280:Generated_Source\PSoC4/UART_2_UART.c ****     #endif /* (UART_2_UART_RX_WAKEUP_IRQ) */
 281:Generated_Source\PSoC4/UART_2_UART.c **** 
 282:Generated_Source\PSoC4/UART_2_UART.c ****         /* Configure interrupt sources */
 283:Generated_Source\PSoC4/UART_2_UART.c ****         UART_2_INTR_I2C_EC_MASK_REG = UART_2_UART_DEFAULT_INTR_I2C_EC_MASK;
  64              		.loc 1 283 0
  65 0030 124A     		ldr	r2, .L2+44
  66 0032 1360     		str	r3, [r2]
 284:Generated_Source\PSoC4/UART_2_UART.c ****         UART_2_INTR_SPI_EC_MASK_REG = UART_2_UART_DEFAULT_INTR_SPI_EC_MASK;
  67              		.loc 1 284 0
  68 0034 124A     		ldr	r2, .L2+48
  69 0036 1360     		str	r3, [r2]
 285:Generated_Source\PSoC4/UART_2_UART.c ****         UART_2_INTR_SLAVE_MASK_REG  = UART_2_UART_DEFAULT_INTR_SLAVE_MASK;
  70              		.loc 1 285 0
  71 0038 124A     		ldr	r2, .L2+52
  72 003a 1360     		str	r3, [r2]
 286:Generated_Source\PSoC4/UART_2_UART.c ****         UART_2_INTR_MASTER_MASK_REG = UART_2_UART_DEFAULT_INTR_MASTER_MASK;
  73              		.loc 1 286 0
  74 003c 124A     		ldr	r2, .L2+56
  75 003e 1360     		str	r3, [r2]
 287:Generated_Source\PSoC4/UART_2_UART.c ****         UART_2_INTR_RX_MASK_REG     = UART_2_UART_DEFAULT_INTR_RX_MASK;
  76              		.loc 1 287 0
  77 0040 124A     		ldr	r2, .L2+60
  78 0042 1360     		str	r3, [r2]
 288:Generated_Source\PSoC4/UART_2_UART.c ****         UART_2_INTR_TX_MASK_REG     = UART_2_UART_DEFAULT_INTR_TX_MASK;
  79              		.loc 1 288 0
  80 0044 124A     		ldr	r2, .L2+64
  81 0046 1360     		str	r3, [r2]
 289:Generated_Source\PSoC4/UART_2_UART.c ****     
 290:Generated_Source\PSoC4/UART_2_UART.c ****         /* Configure TX interrupt sources to restore. */
 291:Generated_Source\PSoC4/UART_2_UART.c ****         UART_2_IntrTxMask = LO16(UART_2_INTR_TX_MASK_REG);
  82              		.loc 1 291 0
  83 0048 1268     		ldr	r2, [r2]
  84 004a 124B     		ldr	r3, .L2+68
  85 004c 1A80     		strh	r2, [r3]
 292:Generated_Source\PSoC4/UART_2_UART.c **** 
 293:Generated_Source\PSoC4/UART_2_UART.c ****     #if(UART_2_INTERNAL_RX_SW_BUFFER_CONST)
 294:Generated_Source\PSoC4/UART_2_UART.c ****         UART_2_rxBufferHead     = 0u;
 295:Generated_Source\PSoC4/UART_2_UART.c ****         UART_2_rxBufferTail     = 0u;
 296:Generated_Source\PSoC4/UART_2_UART.c ****         UART_2_rxBufferOverflow = 0u;
 297:Generated_Source\PSoC4/UART_2_UART.c ****     #endif /* (UART_2_INTERNAL_RX_SW_BUFFER_CONST) */
 298:Generated_Source\PSoC4/UART_2_UART.c **** 
 299:Generated_Source\PSoC4/UART_2_UART.c ****     #if(UART_2_INTERNAL_TX_SW_BUFFER_CONST)
 300:Generated_Source\PSoC4/UART_2_UART.c ****         UART_2_txBufferHead = 0u;
 301:Generated_Source\PSoC4/UART_2_UART.c ****         UART_2_txBufferTail = 0u;
 302:Generated_Source\PSoC4/UART_2_UART.c ****     #endif /* (UART_2_INTERNAL_TX_SW_BUFFER_CONST) */
 303:Generated_Source\PSoC4/UART_2_UART.c ****     }
  86              		.loc 1 303 0
  87              		@ sp needed
  88 004e 10BD     		pop	{r4, pc}
  89              	.L3:
  90              		.align	2
  91              	.L2:
  92 0050 0B000002 		.word	33554443
  93 0054 00000740 		.word	1074200576
  94 0058 40000740 		.word	1074200640
  95 005c 48000740 		.word	1074200648
  96 0060 07000080 		.word	-2147483641
ARM GAS  C:\Users\Feiyang\AppData\Local\Temp\cccTYYiw.s 			page 8


  97 0064 00030740 		.word	1074201344
  98 0068 04030740 		.word	1074201348
  99 006c 10030740 		.word	1074201360
 100 0070 44000740 		.word	1074200644
 101 0074 00020740 		.word	1074201088
 102 0078 04020740 		.word	1074201092
 103 007c 880E0740 		.word	1074204296
 104 0080 C80E0740 		.word	1074204360
 105 0084 480F0740 		.word	1074204488
 106 0088 080F0740 		.word	1074204424
 107 008c C80F0740 		.word	1074204616
 108 0090 880F0740 		.word	1074204552
 109 0094 00000000 		.word	UART_2_IntrTxMask
 110              		.cfi_endproc
 111              	.LFE0:
 112              		.size	UART_2_UartInit, .-UART_2_UartInit
 113              		.section	.text.UART_2_UartPostEnable,"ax",%progbits
 114              		.align	2
 115              		.global	UART_2_UartPostEnable
 116              		.code	16
 117              		.thumb_func
 118              		.type	UART_2_UartPostEnable, %function
 119              	UART_2_UartPostEnable:
 120              	.LFB1:
 304:Generated_Source\PSoC4/UART_2_UART.c **** #endif /* (UART_2_SCB_MODE_UNCONFIG_CONST_CFG) */
 305:Generated_Source\PSoC4/UART_2_UART.c **** 
 306:Generated_Source\PSoC4/UART_2_UART.c **** 
 307:Generated_Source\PSoC4/UART_2_UART.c **** /*******************************************************************************
 308:Generated_Source\PSoC4/UART_2_UART.c **** * Function Name: UART_2_UartPostEnable
 309:Generated_Source\PSoC4/UART_2_UART.c **** ****************************************************************************//**
 310:Generated_Source\PSoC4/UART_2_UART.c **** *
 311:Generated_Source\PSoC4/UART_2_UART.c **** *  Restores HSIOM settings for the UART output pins (TX and/or RTS) to be
 312:Generated_Source\PSoC4/UART_2_UART.c **** *  controlled by the SCB UART.
 313:Generated_Source\PSoC4/UART_2_UART.c **** *
 314:Generated_Source\PSoC4/UART_2_UART.c **** *******************************************************************************/
 315:Generated_Source\PSoC4/UART_2_UART.c **** void UART_2_UartPostEnable(void)
 316:Generated_Source\PSoC4/UART_2_UART.c **** {
 121              		.loc 1 316 0
 122              		.cfi_startproc
 317:Generated_Source\PSoC4/UART_2_UART.c **** #if (UART_2_SCB_MODE_UNCONFIG_CONST_CFG)
 318:Generated_Source\PSoC4/UART_2_UART.c ****     #if (UART_2_TX_SDA_MISO_PIN)
 319:Generated_Source\PSoC4/UART_2_UART.c ****         if (UART_2_CHECK_TX_SDA_MISO_PIN_USED)
 320:Generated_Source\PSoC4/UART_2_UART.c ****         {
 321:Generated_Source\PSoC4/UART_2_UART.c ****             /* Set SCB UART to drive the output pin */
 322:Generated_Source\PSoC4/UART_2_UART.c ****             UART_2_SET_HSIOM_SEL(UART_2_TX_SDA_MISO_HSIOM_REG, UART_2_TX_SDA_MISO_HSIOM_MASK,
 323:Generated_Source\PSoC4/UART_2_UART.c ****                                            UART_2_TX_SDA_MISO_HSIOM_POS, UART_2_TX_SDA_MISO_HSIOM_S
 324:Generated_Source\PSoC4/UART_2_UART.c ****         }
 325:Generated_Source\PSoC4/UART_2_UART.c ****     #endif /* (UART_2_TX_SDA_MISO_PIN_PIN) */
 326:Generated_Source\PSoC4/UART_2_UART.c **** 
 327:Generated_Source\PSoC4/UART_2_UART.c ****     #if !(UART_2_CY_SCBIP_V0 || UART_2_CY_SCBIP_V1)
 328:Generated_Source\PSoC4/UART_2_UART.c ****         #if (UART_2_SS0_PIN)
 329:Generated_Source\PSoC4/UART_2_UART.c ****             if (UART_2_CHECK_SS0_PIN_USED)
 330:Generated_Source\PSoC4/UART_2_UART.c ****             {
 331:Generated_Source\PSoC4/UART_2_UART.c ****                 /* Set SCB UART to drive the output pin */
 332:Generated_Source\PSoC4/UART_2_UART.c ****                 UART_2_SET_HSIOM_SEL(UART_2_SS0_HSIOM_REG, UART_2_SS0_HSIOM_MASK,
 333:Generated_Source\PSoC4/UART_2_UART.c ****                                                UART_2_SS0_HSIOM_POS, UART_2_SS0_HSIOM_SEL_UART);
 334:Generated_Source\PSoC4/UART_2_UART.c ****             }
ARM GAS  C:\Users\Feiyang\AppData\Local\Temp\cccTYYiw.s 			page 9


 335:Generated_Source\PSoC4/UART_2_UART.c ****         #endif /* (UART_2_SS0_PIN) */
 336:Generated_Source\PSoC4/UART_2_UART.c ****     #endif /* !(UART_2_CY_SCBIP_V0 || UART_2_CY_SCBIP_V1) */
 337:Generated_Source\PSoC4/UART_2_UART.c **** 
 338:Generated_Source\PSoC4/UART_2_UART.c **** #else
 339:Generated_Source\PSoC4/UART_2_UART.c ****     #if (UART_2_UART_TX_PIN)
 340:Generated_Source\PSoC4/UART_2_UART.c ****          /* Set SCB UART to drive the output pin */
 341:Generated_Source\PSoC4/UART_2_UART.c ****         UART_2_SET_HSIOM_SEL(UART_2_TX_HSIOM_REG, UART_2_TX_HSIOM_MASK,
 123              		.loc 1 341 0
 124 0000 064A     		ldr	r2, .L5
 125 0002 1168     		ldr	r1, [r2]
 126 0004 064B     		ldr	r3, .L5+4
 127 0006 0B40     		and	r3, r1
 128 0008 9021     		mov	r1, #144
 129 000a 0904     		lsl	r1, r1, #16
 130 000c 0B43     		orr	r3, r1
 131 000e 1360     		str	r3, [r2]
 342:Generated_Source\PSoC4/UART_2_UART.c ****                                        UART_2_TX_HSIOM_POS, UART_2_TX_HSIOM_SEL_UART);
 343:Generated_Source\PSoC4/UART_2_UART.c ****     #endif /* (UART_2_UART_TX_PIN) */
 344:Generated_Source\PSoC4/UART_2_UART.c **** 
 345:Generated_Source\PSoC4/UART_2_UART.c ****     #if (UART_2_UART_RTS_PIN)
 346:Generated_Source\PSoC4/UART_2_UART.c ****         /* Set SCB UART to drive the output pin */
 347:Generated_Source\PSoC4/UART_2_UART.c ****         UART_2_SET_HSIOM_SEL(UART_2_RTS_HSIOM_REG, UART_2_RTS_HSIOM_MASK,
 348:Generated_Source\PSoC4/UART_2_UART.c ****                                        UART_2_RTS_HSIOM_POS, UART_2_RTS_HSIOM_SEL_UART);
 349:Generated_Source\PSoC4/UART_2_UART.c ****     #endif /* (UART_2_UART_RTS_PIN) */
 350:Generated_Source\PSoC4/UART_2_UART.c **** #endif /* (UART_2_SCB_MODE_UNCONFIG_CONST_CFG) */
 351:Generated_Source\PSoC4/UART_2_UART.c **** 
 352:Generated_Source\PSoC4/UART_2_UART.c ****     /* Restore TX interrupt sources. */
 353:Generated_Source\PSoC4/UART_2_UART.c ****     UART_2_SetTxInterruptMode(UART_2_IntrTxMask);
 132              		.loc 1 353 0
 133 0010 044B     		ldr	r3, .L5+8
 134 0012 1A88     		ldrh	r2, [r3]
 135 0014 044B     		ldr	r3, .L5+12
 136 0016 1A60     		str	r2, [r3]
 354:Generated_Source\PSoC4/UART_2_UART.c **** }
 137              		.loc 1 354 0
 138              		@ sp needed
 139 0018 7047     		bx	lr
 140              	.L6:
 141 001a C046     		.align	2
 142              	.L5:
 143 001c 00000140 		.word	1073807360
 144 0020 FFFF0FFF 		.word	-15728641
 145 0024 00000000 		.word	UART_2_IntrTxMask
 146 0028 880F0740 		.word	1074204552
 147              		.cfi_endproc
 148              	.LFE1:
 149              		.size	UART_2_UartPostEnable, .-UART_2_UartPostEnable
 150              		.section	.text.UART_2_UartStop,"ax",%progbits
 151              		.align	2
 152              		.global	UART_2_UartStop
 153              		.code	16
 154              		.thumb_func
 155              		.type	UART_2_UartStop, %function
 156              	UART_2_UartStop:
 157              	.LFB2:
 355:Generated_Source\PSoC4/UART_2_UART.c **** 
 356:Generated_Source\PSoC4/UART_2_UART.c **** 
ARM GAS  C:\Users\Feiyang\AppData\Local\Temp\cccTYYiw.s 			page 10


 357:Generated_Source\PSoC4/UART_2_UART.c **** /*******************************************************************************
 358:Generated_Source\PSoC4/UART_2_UART.c **** * Function Name: UART_2_UartStop
 359:Generated_Source\PSoC4/UART_2_UART.c **** ****************************************************************************//**
 360:Generated_Source\PSoC4/UART_2_UART.c **** *
 361:Generated_Source\PSoC4/UART_2_UART.c **** *  Changes the HSIOM settings for the UART output pins (TX and/or RTS) to keep
 362:Generated_Source\PSoC4/UART_2_UART.c **** *  them inactive after the block is disabled. The output pins are controlled by
 363:Generated_Source\PSoC4/UART_2_UART.c **** *  the GPIO data register. Also, the function disables the skip start feature
 364:Generated_Source\PSoC4/UART_2_UART.c **** *  to not cause it to trigger after the component is enabled.
 365:Generated_Source\PSoC4/UART_2_UART.c **** *
 366:Generated_Source\PSoC4/UART_2_UART.c **** *******************************************************************************/
 367:Generated_Source\PSoC4/UART_2_UART.c **** void UART_2_UartStop(void)
 368:Generated_Source\PSoC4/UART_2_UART.c **** {
 158              		.loc 1 368 0
 159              		.cfi_startproc
 369:Generated_Source\PSoC4/UART_2_UART.c **** #if(UART_2_SCB_MODE_UNCONFIG_CONST_CFG)
 370:Generated_Source\PSoC4/UART_2_UART.c ****     #if (UART_2_TX_SDA_MISO_PIN)
 371:Generated_Source\PSoC4/UART_2_UART.c ****         if (UART_2_CHECK_TX_SDA_MISO_PIN_USED)
 372:Generated_Source\PSoC4/UART_2_UART.c ****         {
 373:Generated_Source\PSoC4/UART_2_UART.c ****             /* Set GPIO to drive output pin */
 374:Generated_Source\PSoC4/UART_2_UART.c ****             UART_2_SET_HSIOM_SEL(UART_2_TX_SDA_MISO_HSIOM_REG, UART_2_TX_SDA_MISO_HSIOM_MASK,
 375:Generated_Source\PSoC4/UART_2_UART.c ****                                            UART_2_TX_SDA_MISO_HSIOM_POS, UART_2_TX_SDA_MISO_HSIOM_S
 376:Generated_Source\PSoC4/UART_2_UART.c ****         }
 377:Generated_Source\PSoC4/UART_2_UART.c ****     #endif /* (UART_2_TX_SDA_MISO_PIN_PIN) */
 378:Generated_Source\PSoC4/UART_2_UART.c **** 
 379:Generated_Source\PSoC4/UART_2_UART.c ****     #if !(UART_2_CY_SCBIP_V0 || UART_2_CY_SCBIP_V1)
 380:Generated_Source\PSoC4/UART_2_UART.c ****         #if (UART_2_SS0_PIN)
 381:Generated_Source\PSoC4/UART_2_UART.c ****             if (UART_2_CHECK_SS0_PIN_USED)
 382:Generated_Source\PSoC4/UART_2_UART.c ****             {
 383:Generated_Source\PSoC4/UART_2_UART.c ****                 /* Set output pin state after block is disabled */
 384:Generated_Source\PSoC4/UART_2_UART.c ****                 UART_2_spi_ss0_Write(UART_2_GET_UART_RTS_INACTIVE);
 385:Generated_Source\PSoC4/UART_2_UART.c **** 
 386:Generated_Source\PSoC4/UART_2_UART.c ****                 /* Set GPIO to drive output pin */
 387:Generated_Source\PSoC4/UART_2_UART.c ****                 UART_2_SET_HSIOM_SEL(UART_2_SS0_HSIOM_REG, UART_2_SS0_HSIOM_MASK,
 388:Generated_Source\PSoC4/UART_2_UART.c ****                                                UART_2_SS0_HSIOM_POS, UART_2_SS0_HSIOM_SEL_GPIO);
 389:Generated_Source\PSoC4/UART_2_UART.c ****             }
 390:Generated_Source\PSoC4/UART_2_UART.c ****         #endif /* (UART_2_SS0_PIN) */
 391:Generated_Source\PSoC4/UART_2_UART.c ****     #endif /* !(UART_2_CY_SCBIP_V0 || UART_2_CY_SCBIP_V1) */
 392:Generated_Source\PSoC4/UART_2_UART.c **** 
 393:Generated_Source\PSoC4/UART_2_UART.c **** #else
 394:Generated_Source\PSoC4/UART_2_UART.c ****     #if (UART_2_UART_TX_PIN)
 395:Generated_Source\PSoC4/UART_2_UART.c ****         /* Set GPIO to drive output pin */
 396:Generated_Source\PSoC4/UART_2_UART.c ****         UART_2_SET_HSIOM_SEL(UART_2_TX_HSIOM_REG, UART_2_TX_HSIOM_MASK,
 160              		.loc 1 396 0
 161 0000 064A     		ldr	r2, .L8
 162 0002 1168     		ldr	r1, [r2]
 163 0004 064B     		ldr	r3, .L8+4
 164 0006 0B40     		and	r3, r1
 165 0008 1360     		str	r3, [r2]
 397:Generated_Source\PSoC4/UART_2_UART.c ****                                        UART_2_TX_HSIOM_POS, UART_2_TX_HSIOM_SEL_GPIO);
 398:Generated_Source\PSoC4/UART_2_UART.c ****     #endif /* (UART_2_UART_TX_PIN) */
 399:Generated_Source\PSoC4/UART_2_UART.c **** 
 400:Generated_Source\PSoC4/UART_2_UART.c ****     #if (UART_2_UART_RTS_PIN)
 401:Generated_Source\PSoC4/UART_2_UART.c ****         /* Set output pin state after block is disabled */
 402:Generated_Source\PSoC4/UART_2_UART.c ****         UART_2_rts_Write(UART_2_GET_UART_RTS_INACTIVE);
 403:Generated_Source\PSoC4/UART_2_UART.c **** 
 404:Generated_Source\PSoC4/UART_2_UART.c ****         /* Set GPIO to drive output pin */
 405:Generated_Source\PSoC4/UART_2_UART.c ****         UART_2_SET_HSIOM_SEL(UART_2_RTS_HSIOM_REG, UART_2_RTS_HSIOM_MASK,
ARM GAS  C:\Users\Feiyang\AppData\Local\Temp\cccTYYiw.s 			page 11


 406:Generated_Source\PSoC4/UART_2_UART.c ****                                        UART_2_RTS_HSIOM_POS, UART_2_RTS_HSIOM_SEL_GPIO);
 407:Generated_Source\PSoC4/UART_2_UART.c ****     #endif /* (UART_2_UART_RTS_PIN) */
 408:Generated_Source\PSoC4/UART_2_UART.c **** 
 409:Generated_Source\PSoC4/UART_2_UART.c **** #endif /* (UART_2_SCB_MODE_UNCONFIG_CONST_CFG) */
 410:Generated_Source\PSoC4/UART_2_UART.c **** 
 411:Generated_Source\PSoC4/UART_2_UART.c **** #if (UART_2_UART_WAKE_ENABLE_CONST)
 412:Generated_Source\PSoC4/UART_2_UART.c ****     /* Disable skip start feature used for wakeup */
 413:Generated_Source\PSoC4/UART_2_UART.c ****     UART_2_UART_RX_CTRL_REG &= (uint32) ~UART_2_UART_RX_CTRL_SKIP_START;
 414:Generated_Source\PSoC4/UART_2_UART.c **** #endif /* (UART_2_UART_WAKE_ENABLE_CONST) */
 415:Generated_Source\PSoC4/UART_2_UART.c **** 
 416:Generated_Source\PSoC4/UART_2_UART.c ****     /* Store TX interrupt sources (exclude level triggered). */
 417:Generated_Source\PSoC4/UART_2_UART.c ****     UART_2_IntrTxMask = LO16(UART_2_GetTxInterruptMode() & UART_2_INTR_UART_TX_RESTORE);
 166              		.loc 1 417 0
 167 000a 064B     		ldr	r3, .L8+8
 168 000c 1A68     		ldr	r2, [r3]
 169 000e E423     		mov	r3, #228
 170 0010 DB00     		lsl	r3, r3, #3
 171 0012 1340     		and	r3, r2
 172 0014 044A     		ldr	r2, .L8+12
 173 0016 1380     		strh	r3, [r2]
 418:Generated_Source\PSoC4/UART_2_UART.c **** }
 174              		.loc 1 418 0
 175              		@ sp needed
 176 0018 7047     		bx	lr
 177              	.L9:
 178 001a C046     		.align	2
 179              	.L8:
 180 001c 00000140 		.word	1073807360
 181 0020 FFFF0FFF 		.word	-15728641
 182 0024 880F0740 		.word	1074204552
 183 0028 00000000 		.word	UART_2_IntrTxMask
 184              		.cfi_endproc
 185              	.LFE2:
 186              		.size	UART_2_UartStop, .-UART_2_UartStop
 187              		.section	.text.UART_2_UartSetRxAddress,"ax",%progbits
 188              		.align	2
 189              		.global	UART_2_UartSetRxAddress
 190              		.code	16
 191              		.thumb_func
 192              		.type	UART_2_UartSetRxAddress, %function
 193              	UART_2_UartSetRxAddress:
 194              	.LFB3:
 419:Generated_Source\PSoC4/UART_2_UART.c **** 
 420:Generated_Source\PSoC4/UART_2_UART.c **** 
 421:Generated_Source\PSoC4/UART_2_UART.c **** /*******************************************************************************
 422:Generated_Source\PSoC4/UART_2_UART.c **** * Function Name: UART_2_UartSetRxAddress
 423:Generated_Source\PSoC4/UART_2_UART.c **** ****************************************************************************//**
 424:Generated_Source\PSoC4/UART_2_UART.c **** *
 425:Generated_Source\PSoC4/UART_2_UART.c **** *  Sets the hardware detectable receiver address for the UART in the
 426:Generated_Source\PSoC4/UART_2_UART.c **** *  Multiprocessor mode.
 427:Generated_Source\PSoC4/UART_2_UART.c **** *
 428:Generated_Source\PSoC4/UART_2_UART.c **** *  \param address: Address for hardware address detection.
 429:Generated_Source\PSoC4/UART_2_UART.c **** *
 430:Generated_Source\PSoC4/UART_2_UART.c **** *******************************************************************************/
 431:Generated_Source\PSoC4/UART_2_UART.c **** void UART_2_UartSetRxAddress(uint32 address)
 432:Generated_Source\PSoC4/UART_2_UART.c **** {
 195              		.loc 1 432 0
ARM GAS  C:\Users\Feiyang\AppData\Local\Temp\cccTYYiw.s 			page 12


 196              		.cfi_startproc
 197              	.LVL0:
 433:Generated_Source\PSoC4/UART_2_UART.c ****      uint32 matchReg;
 434:Generated_Source\PSoC4/UART_2_UART.c **** 
 435:Generated_Source\PSoC4/UART_2_UART.c ****     matchReg = UART_2_RX_MATCH_REG;
 198              		.loc 1 435 0
 199 0000 034A     		ldr	r2, .L11
 200 0002 1368     		ldr	r3, [r2]
 201              	.LVL1:
 436:Generated_Source\PSoC4/UART_2_UART.c **** 
 437:Generated_Source\PSoC4/UART_2_UART.c ****     matchReg &= ((uint32) ~UART_2_RX_MATCH_ADDR_MASK); /* Clear address bits */
 202              		.loc 1 437 0
 203 0004 FF21     		mov	r1, #255
 204 0006 8B43     		bic	r3, r1
 205              	.LVL2:
 438:Generated_Source\PSoC4/UART_2_UART.c ****     matchReg |= ((uint32)  (address & UART_2_RX_MATCH_ADDR_MASK)); /* Set address  */
 206              		.loc 1 438 0
 207 0008 0840     		and	r0, r1
 208              	.LVL3:
 209 000a 1843     		orr	r0, r3
 210              	.LVL4:
 439:Generated_Source\PSoC4/UART_2_UART.c **** 
 440:Generated_Source\PSoC4/UART_2_UART.c ****     UART_2_RX_MATCH_REG = matchReg;
 211              		.loc 1 440 0
 212 000c 1060     		str	r0, [r2]
 441:Generated_Source\PSoC4/UART_2_UART.c **** }
 213              		.loc 1 441 0
 214              		@ sp needed
 215 000e 7047     		bx	lr
 216              	.L12:
 217              		.align	2
 218              	.L11:
 219 0010 10030740 		.word	1074201360
 220              		.cfi_endproc
 221              	.LFE3:
 222              		.size	UART_2_UartSetRxAddress, .-UART_2_UartSetRxAddress
 223              		.section	.text.UART_2_UartSetRxAddressMask,"ax",%progbits
 224              		.align	2
 225              		.global	UART_2_UartSetRxAddressMask
 226              		.code	16
 227              		.thumb_func
 228              		.type	UART_2_UartSetRxAddressMask, %function
 229              	UART_2_UartSetRxAddressMask:
 230              	.LFB4:
 442:Generated_Source\PSoC4/UART_2_UART.c **** 
 443:Generated_Source\PSoC4/UART_2_UART.c **** 
 444:Generated_Source\PSoC4/UART_2_UART.c **** /*******************************************************************************
 445:Generated_Source\PSoC4/UART_2_UART.c **** * Function Name: UART_2_UartSetRxAddressMask
 446:Generated_Source\PSoC4/UART_2_UART.c **** ****************************************************************************//**
 447:Generated_Source\PSoC4/UART_2_UART.c **** *
 448:Generated_Source\PSoC4/UART_2_UART.c **** *  Sets the hardware address mask for the UART in the Multiprocessor mode.
 449:Generated_Source\PSoC4/UART_2_UART.c **** *
 450:Generated_Source\PSoC4/UART_2_UART.c **** *  \param addressMask: Address mask.
 451:Generated_Source\PSoC4/UART_2_UART.c **** *   - Bit value 0 – excludes bit from address comparison.
 452:Generated_Source\PSoC4/UART_2_UART.c **** *   - Bit value 1 – the bit needs to match with the corresponding bit
 453:Generated_Source\PSoC4/UART_2_UART.c **** *     of the address.
 454:Generated_Source\PSoC4/UART_2_UART.c **** *
ARM GAS  C:\Users\Feiyang\AppData\Local\Temp\cccTYYiw.s 			page 13


 455:Generated_Source\PSoC4/UART_2_UART.c **** *******************************************************************************/
 456:Generated_Source\PSoC4/UART_2_UART.c **** void UART_2_UartSetRxAddressMask(uint32 addressMask)
 457:Generated_Source\PSoC4/UART_2_UART.c **** {
 231              		.loc 1 457 0
 232              		.cfi_startproc
 233              	.LVL5:
 458:Generated_Source\PSoC4/UART_2_UART.c ****     uint32 matchReg;
 459:Generated_Source\PSoC4/UART_2_UART.c **** 
 460:Generated_Source\PSoC4/UART_2_UART.c ****     matchReg = UART_2_RX_MATCH_REG;
 234              		.loc 1 460 0
 235 0000 034A     		ldr	r2, .L14
 236 0002 1168     		ldr	r1, [r2]
 237              	.LVL6:
 461:Generated_Source\PSoC4/UART_2_UART.c **** 
 462:Generated_Source\PSoC4/UART_2_UART.c ****     matchReg &= ((uint32) ~UART_2_RX_MATCH_MASK_MASK); /* Clear address mask bits */
 238              		.loc 1 462 0
 239 0004 034B     		ldr	r3, .L14+4
 240 0006 0B40     		and	r3, r1
 241              	.LVL7:
 463:Generated_Source\PSoC4/UART_2_UART.c ****     matchReg |= ((uint32) (addressMask << UART_2_RX_MATCH_MASK_POS));
 242              		.loc 1 463 0
 243 0008 0004     		lsl	r0, r0, #16
 244              	.LVL8:
 245 000a 1843     		orr	r0, r3
 246              	.LVL9:
 464:Generated_Source\PSoC4/UART_2_UART.c **** 
 465:Generated_Source\PSoC4/UART_2_UART.c ****     UART_2_RX_MATCH_REG = matchReg;
 247              		.loc 1 465 0
 248 000c 1060     		str	r0, [r2]
 466:Generated_Source\PSoC4/UART_2_UART.c **** }
 249              		.loc 1 466 0
 250              		@ sp needed
 251 000e 7047     		bx	lr
 252              	.L15:
 253              		.align	2
 254              	.L14:
 255 0010 10030740 		.word	1074201360
 256 0014 FFFF00FF 		.word	-16711681
 257              		.cfi_endproc
 258              	.LFE4:
 259              		.size	UART_2_UartSetRxAddressMask, .-UART_2_UartSetRxAddressMask
 260              		.section	.text.UART_2_UartGetChar,"ax",%progbits
 261              		.align	2
 262              		.global	UART_2_UartGetChar
 263              		.code	16
 264              		.thumb_func
 265              		.type	UART_2_UartGetChar, %function
 266              	UART_2_UartGetChar:
 267              	.LFB5:
 467:Generated_Source\PSoC4/UART_2_UART.c **** 
 468:Generated_Source\PSoC4/UART_2_UART.c **** 
 469:Generated_Source\PSoC4/UART_2_UART.c **** #if(UART_2_UART_RX_DIRECTION)
 470:Generated_Source\PSoC4/UART_2_UART.c ****     /*******************************************************************************
 471:Generated_Source\PSoC4/UART_2_UART.c ****     * Function Name: UART_2_UartGetChar
 472:Generated_Source\PSoC4/UART_2_UART.c ****     ****************************************************************************//**
 473:Generated_Source\PSoC4/UART_2_UART.c ****     *
 474:Generated_Source\PSoC4/UART_2_UART.c ****     *  Retrieves next data element from receive buffer.
ARM GAS  C:\Users\Feiyang\AppData\Local\Temp\cccTYYiw.s 			page 14


 475:Generated_Source\PSoC4/UART_2_UART.c ****     *  This function is designed for ASCII characters and returns a char where
 476:Generated_Source\PSoC4/UART_2_UART.c ****     *  1 to 255 are valid characters and 0 indicates an error occurred or no data
 477:Generated_Source\PSoC4/UART_2_UART.c ****     *  is present.
 478:Generated_Source\PSoC4/UART_2_UART.c ****     *  - RX software buffer is disabled: Returns data element retrieved from RX
 479:Generated_Source\PSoC4/UART_2_UART.c ****     *    FIFO.
 480:Generated_Source\PSoC4/UART_2_UART.c ****     *  - RX software buffer is enabled: Returns data element from the software
 481:Generated_Source\PSoC4/UART_2_UART.c ****     *    receive buffer.
 482:Generated_Source\PSoC4/UART_2_UART.c ****     *
 483:Generated_Source\PSoC4/UART_2_UART.c ****     *  \return
 484:Generated_Source\PSoC4/UART_2_UART.c ****     *   Next data element from the receive buffer. ASCII character values from
 485:Generated_Source\PSoC4/UART_2_UART.c ****     *   1 to 255 are valid. A returned zero signifies an error condition or no
 486:Generated_Source\PSoC4/UART_2_UART.c ****     *   data available.
 487:Generated_Source\PSoC4/UART_2_UART.c ****     *
 488:Generated_Source\PSoC4/UART_2_UART.c ****     *  \sideeffect
 489:Generated_Source\PSoC4/UART_2_UART.c ****     *   The errors bits may not correspond with reading characters due to
 490:Generated_Source\PSoC4/UART_2_UART.c ****     *   RX FIFO and software buffer usage.
 491:Generated_Source\PSoC4/UART_2_UART.c ****     *   RX software buffer is enabled: The internal software buffer overflow
 492:Generated_Source\PSoC4/UART_2_UART.c ****     *   is not treated as an error condition.
 493:Generated_Source\PSoC4/UART_2_UART.c ****     *   Check UART_2_rxBufferOverflow to capture that error condition.
 494:Generated_Source\PSoC4/UART_2_UART.c ****     *
 495:Generated_Source\PSoC4/UART_2_UART.c ****     *******************************************************************************/
 496:Generated_Source\PSoC4/UART_2_UART.c ****     uint32 UART_2_UartGetChar(void)
 497:Generated_Source\PSoC4/UART_2_UART.c ****     {
 268              		.loc 1 497 0
 269              		.cfi_startproc
 270 0000 08B5     		push	{r3, lr}
 271              		.cfi_def_cfa_offset 8
 272              		.cfi_offset 3, -8
 273              		.cfi_offset 14, -4
 274              	.LVL10:
 498:Generated_Source\PSoC4/UART_2_UART.c ****         uint32 rxData = 0u;
 499:Generated_Source\PSoC4/UART_2_UART.c **** 
 500:Generated_Source\PSoC4/UART_2_UART.c ****         /* Reads data only if there is data to read */
 501:Generated_Source\PSoC4/UART_2_UART.c ****         if (0u != UART_2_SpiUartGetRxBufferSize())
 275              		.loc 1 501 0
 276 0002 FFF7FEFF 		bl	UART_2_SpiUartGetRxBufferSize
 277              	.LVL11:
 278 0006 0028     		cmp	r0, #0
 279 0008 02D0     		beq	.L19
 502:Generated_Source\PSoC4/UART_2_UART.c ****         {
 503:Generated_Source\PSoC4/UART_2_UART.c ****             rxData = UART_2_SpiUartReadRxData();
 280              		.loc 1 503 0
 281 000a FFF7FEFF 		bl	UART_2_SpiUartReadRxData
 282              	.LVL12:
 283 000e 00E0     		b	.L17
 284              	.LVL13:
 285              	.L19:
 498:Generated_Source\PSoC4/UART_2_UART.c ****         uint32 rxData = 0u;
 286              		.loc 1 498 0
 287 0010 0020     		mov	r0, #0
 288              	.LVL14:
 289              	.L17:
 504:Generated_Source\PSoC4/UART_2_UART.c ****         }
 505:Generated_Source\PSoC4/UART_2_UART.c **** 
 506:Generated_Source\PSoC4/UART_2_UART.c ****         if (UART_2_CHECK_INTR_RX(UART_2_INTR_RX_ERR))
 290              		.loc 1 506 0
 291 0012 054B     		ldr	r3, .L20
ARM GAS  C:\Users\Feiyang\AppData\Local\Temp\cccTYYiw.s 			page 15


 292 0014 1A68     		ldr	r2, [r3]
 293 0016 D823     		mov	r3, #216
 294 0018 9B00     		lsl	r3, r3, #2
 295 001a 1A42     		tst	r2, r3
 296 001c 03D0     		beq	.L18
 297              	.LVL15:
 507:Generated_Source\PSoC4/UART_2_UART.c ****         {
 508:Generated_Source\PSoC4/UART_2_UART.c ****             rxData = 0u; /* Error occurred: returns zero */
 509:Generated_Source\PSoC4/UART_2_UART.c ****             UART_2_ClearRxInterruptSource(UART_2_INTR_RX_ERR);
 298              		.loc 1 509 0
 299 001e 1A1C     		mov	r2, r3
 300 0020 014B     		ldr	r3, .L20
 301 0022 1A60     		str	r2, [r3]
 508:Generated_Source\PSoC4/UART_2_UART.c ****             UART_2_ClearRxInterruptSource(UART_2_INTR_RX_ERR);
 302              		.loc 1 508 0
 303 0024 0020     		mov	r0, #0
 304              	.LVL16:
 305              	.L18:
 510:Generated_Source\PSoC4/UART_2_UART.c ****         }
 511:Generated_Source\PSoC4/UART_2_UART.c **** 
 512:Generated_Source\PSoC4/UART_2_UART.c ****         return (rxData);
 513:Generated_Source\PSoC4/UART_2_UART.c ****     }
 306              		.loc 1 513 0
 307              		@ sp needed
 308 0026 08BD     		pop	{r3, pc}
 309              	.L21:
 310              		.align	2
 311              	.L20:
 312 0028 C00F0740 		.word	1074204608
 313              		.cfi_endproc
 314              	.LFE5:
 315              		.size	UART_2_UartGetChar, .-UART_2_UartGetChar
 316              		.section	.text.UART_2_UartGetByte,"ax",%progbits
 317              		.align	2
 318              		.global	UART_2_UartGetByte
 319              		.code	16
 320              		.thumb_func
 321              		.type	UART_2_UartGetByte, %function
 322              	UART_2_UartGetByte:
 323              	.LFB6:
 514:Generated_Source\PSoC4/UART_2_UART.c **** 
 515:Generated_Source\PSoC4/UART_2_UART.c **** 
 516:Generated_Source\PSoC4/UART_2_UART.c ****     /*******************************************************************************
 517:Generated_Source\PSoC4/UART_2_UART.c ****     * Function Name: UART_2_UartGetByte
 518:Generated_Source\PSoC4/UART_2_UART.c ****     ****************************************************************************//**
 519:Generated_Source\PSoC4/UART_2_UART.c ****     *
 520:Generated_Source\PSoC4/UART_2_UART.c ****     *  Retrieves the next data element from the receive buffer, returns the
 521:Generated_Source\PSoC4/UART_2_UART.c ****     *  received byte and error condition.
 522:Generated_Source\PSoC4/UART_2_UART.c ****     *   - The RX software buffer is disabled: returns the data element retrieved
 523:Generated_Source\PSoC4/UART_2_UART.c ****     *     from the RX FIFO. Undefined data will be returned if the RX FIFO is
 524:Generated_Source\PSoC4/UART_2_UART.c ****     *     empty.
 525:Generated_Source\PSoC4/UART_2_UART.c ****     *   - The RX software buffer is enabled: returns data element from the
 526:Generated_Source\PSoC4/UART_2_UART.c ****     *     software receive buffer.
 527:Generated_Source\PSoC4/UART_2_UART.c ****     *
 528:Generated_Source\PSoC4/UART_2_UART.c ****     *  \return
 529:Generated_Source\PSoC4/UART_2_UART.c ****     *   Bits 7-0 contain the next data element from the receive buffer and
 530:Generated_Source\PSoC4/UART_2_UART.c ****     *   other bits contain the error condition.
ARM GAS  C:\Users\Feiyang\AppData\Local\Temp\cccTYYiw.s 			page 16


 531:Generated_Source\PSoC4/UART_2_UART.c ****     *   - UART_2_UART_RX_OVERFLOW - Attempt to write to a full
 532:Generated_Source\PSoC4/UART_2_UART.c ****     *     receiver FIFO.
 533:Generated_Source\PSoC4/UART_2_UART.c ****     *   - UART_2_UART_RX_UNDERFLOW	Attempt to read from an empty
 534:Generated_Source\PSoC4/UART_2_UART.c ****     *     receiver FIFO.
 535:Generated_Source\PSoC4/UART_2_UART.c ****     *   - UART_2_UART_RX_FRAME_ERROR - UART framing error detected.
 536:Generated_Source\PSoC4/UART_2_UART.c ****     *   - UART_2_UART_RX_PARITY_ERROR - UART parity error detected.
 537:Generated_Source\PSoC4/UART_2_UART.c ****     *
 538:Generated_Source\PSoC4/UART_2_UART.c ****     *  \sideeffect
 539:Generated_Source\PSoC4/UART_2_UART.c ****     *   The errors bits may not correspond with reading characters due to
 540:Generated_Source\PSoC4/UART_2_UART.c ****     *   RX FIFO and software buffer usage.
 541:Generated_Source\PSoC4/UART_2_UART.c ****     *   RX software buffer is enabled: The internal software buffer overflow
 542:Generated_Source\PSoC4/UART_2_UART.c ****     *   is not treated as an error condition.
 543:Generated_Source\PSoC4/UART_2_UART.c ****     *   Check UART_2_rxBufferOverflow to capture that error condition.
 544:Generated_Source\PSoC4/UART_2_UART.c ****     *
 545:Generated_Source\PSoC4/UART_2_UART.c ****     *******************************************************************************/
 546:Generated_Source\PSoC4/UART_2_UART.c ****     uint32 UART_2_UartGetByte(void)
 547:Generated_Source\PSoC4/UART_2_UART.c ****     {
 324              		.loc 1 547 0
 325              		.cfi_startproc
 326 0000 08B5     		push	{r3, lr}
 327              		.cfi_def_cfa_offset 8
 328              		.cfi_offset 3, -8
 329              		.cfi_offset 14, -4
 548:Generated_Source\PSoC4/UART_2_UART.c ****         uint32 rxData;
 549:Generated_Source\PSoC4/UART_2_UART.c ****         uint32 tmpStatus;
 550:Generated_Source\PSoC4/UART_2_UART.c **** 
 551:Generated_Source\PSoC4/UART_2_UART.c ****         #if (UART_2_CHECK_RX_SW_BUFFER)
 552:Generated_Source\PSoC4/UART_2_UART.c ****         {
 553:Generated_Source\PSoC4/UART_2_UART.c ****             UART_2_DisableInt();
 554:Generated_Source\PSoC4/UART_2_UART.c ****         }
 555:Generated_Source\PSoC4/UART_2_UART.c ****         #endif
 556:Generated_Source\PSoC4/UART_2_UART.c **** 
 557:Generated_Source\PSoC4/UART_2_UART.c ****         if (0u != UART_2_SpiUartGetRxBufferSize())
 330              		.loc 1 557 0
 331 0002 FFF7FEFF 		bl	UART_2_SpiUartGetRxBufferSize
 332              	.LVL17:
 333 0006 0028     		cmp	r0, #0
 334 0008 02D0     		beq	.L23
 558:Generated_Source\PSoC4/UART_2_UART.c ****         {
 559:Generated_Source\PSoC4/UART_2_UART.c ****             /* Enables interrupt to receive more bytes: at least one byte is in
 560:Generated_Source\PSoC4/UART_2_UART.c ****             * buffer.
 561:Generated_Source\PSoC4/UART_2_UART.c ****             */
 562:Generated_Source\PSoC4/UART_2_UART.c ****             #if (UART_2_CHECK_RX_SW_BUFFER)
 563:Generated_Source\PSoC4/UART_2_UART.c ****             {
 564:Generated_Source\PSoC4/UART_2_UART.c ****                 UART_2_EnableInt();
 565:Generated_Source\PSoC4/UART_2_UART.c ****             }
 566:Generated_Source\PSoC4/UART_2_UART.c ****             #endif
 567:Generated_Source\PSoC4/UART_2_UART.c **** 
 568:Generated_Source\PSoC4/UART_2_UART.c ****             /* Get received byte */
 569:Generated_Source\PSoC4/UART_2_UART.c ****             rxData = UART_2_SpiUartReadRxData();
 335              		.loc 1 569 0
 336 000a FFF7FEFF 		bl	UART_2_SpiUartReadRxData
 337              	.LVL18:
 338 000e 01E0     		b	.L24
 339              	.LVL19:
 340              	.L23:
 570:Generated_Source\PSoC4/UART_2_UART.c ****         }
ARM GAS  C:\Users\Feiyang\AppData\Local\Temp\cccTYYiw.s 			page 17


 571:Generated_Source\PSoC4/UART_2_UART.c ****         else
 572:Generated_Source\PSoC4/UART_2_UART.c ****         {
 573:Generated_Source\PSoC4/UART_2_UART.c ****             /* Reads a byte directly from RX FIFO: underflow is raised in the
 574:Generated_Source\PSoC4/UART_2_UART.c ****             * case of empty. Otherwise the first received byte will be read.
 575:Generated_Source\PSoC4/UART_2_UART.c ****             */
 576:Generated_Source\PSoC4/UART_2_UART.c ****             rxData = UART_2_RX_FIFO_RD_REG;
 341              		.loc 1 576 0
 342 0010 054B     		ldr	r3, .L25
 343 0012 1868     		ldr	r0, [r3]
 344              	.LVL20:
 345              	.L24:
 577:Generated_Source\PSoC4/UART_2_UART.c **** 
 578:Generated_Source\PSoC4/UART_2_UART.c **** 
 579:Generated_Source\PSoC4/UART_2_UART.c ****             /* Enables interrupt to receive more bytes. */
 580:Generated_Source\PSoC4/UART_2_UART.c ****             #if (UART_2_CHECK_RX_SW_BUFFER)
 581:Generated_Source\PSoC4/UART_2_UART.c ****             {
 582:Generated_Source\PSoC4/UART_2_UART.c **** 
 583:Generated_Source\PSoC4/UART_2_UART.c ****                 /* The byte has been read from RX FIFO. Clear RX interrupt to
 584:Generated_Source\PSoC4/UART_2_UART.c ****                 * not involve interrupt handler when RX FIFO is empty.
 585:Generated_Source\PSoC4/UART_2_UART.c ****                 */
 586:Generated_Source\PSoC4/UART_2_UART.c ****                 UART_2_ClearRxInterruptSource(UART_2_INTR_RX_NOT_EMPTY);
 587:Generated_Source\PSoC4/UART_2_UART.c **** 
 588:Generated_Source\PSoC4/UART_2_UART.c ****                 UART_2_EnableInt();
 589:Generated_Source\PSoC4/UART_2_UART.c ****             }
 590:Generated_Source\PSoC4/UART_2_UART.c ****             #endif
 591:Generated_Source\PSoC4/UART_2_UART.c ****         }
 592:Generated_Source\PSoC4/UART_2_UART.c **** 
 593:Generated_Source\PSoC4/UART_2_UART.c ****         /* Get and clear RX error mask */
 594:Generated_Source\PSoC4/UART_2_UART.c ****         tmpStatus = (UART_2_GetRxInterruptSource() & UART_2_INTR_RX_ERR);
 346              		.loc 1 594 0
 347 0014 054A     		ldr	r2, .L25+4
 348 0016 1368     		ldr	r3, [r2]
 349 0018 D821     		mov	r1, #216
 350 001a 8900     		lsl	r1, r1, #2
 351 001c 0B40     		and	r3, r1
 352              	.LVL21:
 595:Generated_Source\PSoC4/UART_2_UART.c ****         UART_2_ClearRxInterruptSource(UART_2_INTR_RX_ERR);
 353              		.loc 1 595 0
 354 001e 1160     		str	r1, [r2]
 596:Generated_Source\PSoC4/UART_2_UART.c **** 
 597:Generated_Source\PSoC4/UART_2_UART.c ****         /* Puts together data and error status:
 598:Generated_Source\PSoC4/UART_2_UART.c ****         * MP mode and accept address: 9th bit is set to notify mark.
 599:Generated_Source\PSoC4/UART_2_UART.c ****         */
 600:Generated_Source\PSoC4/UART_2_UART.c ****         rxData |= ((uint32) (tmpStatus << 8u));
 355              		.loc 1 600 0
 356 0020 1B02     		lsl	r3, r3, #8
 357              	.LVL22:
 358 0022 1843     		orr	r0, r3
 359              	.LVL23:
 601:Generated_Source\PSoC4/UART_2_UART.c **** 
 602:Generated_Source\PSoC4/UART_2_UART.c ****         return (rxData);
 603:Generated_Source\PSoC4/UART_2_UART.c ****     }
 360              		.loc 1 603 0
 361              		@ sp needed
 362 0024 08BD     		pop	{r3, pc}
 363              	.L26:
 364 0026 C046     		.align	2
ARM GAS  C:\Users\Feiyang\AppData\Local\Temp\cccTYYiw.s 			page 18


 365              	.L25:
 366 0028 40030740 		.word	1074201408
 367 002c C00F0740 		.word	1074204608
 368              		.cfi_endproc
 369              	.LFE6:
 370              		.size	UART_2_UartGetByte, .-UART_2_UartGetByte
 371              		.section	.text.UART_2_UartPutString,"ax",%progbits
 372              		.align	2
 373              		.global	UART_2_UartPutString
 374              		.code	16
 375              		.thumb_func
 376              		.type	UART_2_UartPutString, %function
 377              	UART_2_UartPutString:
 378              	.LFB7:
 604:Generated_Source\PSoC4/UART_2_UART.c **** 
 605:Generated_Source\PSoC4/UART_2_UART.c **** 
 606:Generated_Source\PSoC4/UART_2_UART.c ****     #if !(UART_2_CY_SCBIP_V0 || UART_2_CY_SCBIP_V1)
 607:Generated_Source\PSoC4/UART_2_UART.c ****         /*******************************************************************************
 608:Generated_Source\PSoC4/UART_2_UART.c ****         * Function Name: UART_2_UartSetRtsPolarity
 609:Generated_Source\PSoC4/UART_2_UART.c ****         ****************************************************************************//**
 610:Generated_Source\PSoC4/UART_2_UART.c ****         *
 611:Generated_Source\PSoC4/UART_2_UART.c ****         *  Sets active polarity of RTS output signal.
 612:Generated_Source\PSoC4/UART_2_UART.c ****         *  Only available for PSoC 4100 BLE / PSoC 4200 BLE / PSoC 4100M / PSoC 4200M /
 613:Generated_Source\PSoC4/UART_2_UART.c ****         *  PSoC 4200L / PSoC 4000S / PSoC 4100S / PSoC Analog Coprocessor devices.
 614:Generated_Source\PSoC4/UART_2_UART.c ****         *
 615:Generated_Source\PSoC4/UART_2_UART.c ****         *  \param polarity: Active polarity of RTS output signal.
 616:Generated_Source\PSoC4/UART_2_UART.c ****         *   - UART_2_UART_RTS_ACTIVE_LOW  - RTS signal is active low.
 617:Generated_Source\PSoC4/UART_2_UART.c ****         *   - UART_2_UART_RTS_ACTIVE_HIGH - RTS signal is active high.
 618:Generated_Source\PSoC4/UART_2_UART.c ****         *
 619:Generated_Source\PSoC4/UART_2_UART.c ****         *******************************************************************************/
 620:Generated_Source\PSoC4/UART_2_UART.c ****         void UART_2_UartSetRtsPolarity(uint32 polarity)
 621:Generated_Source\PSoC4/UART_2_UART.c ****         {
 622:Generated_Source\PSoC4/UART_2_UART.c ****             if(0u != polarity)
 623:Generated_Source\PSoC4/UART_2_UART.c ****             {
 624:Generated_Source\PSoC4/UART_2_UART.c ****                 UART_2_UART_FLOW_CTRL_REG |= (uint32)  UART_2_UART_FLOW_CTRL_RTS_POLARITY;
 625:Generated_Source\PSoC4/UART_2_UART.c ****             }
 626:Generated_Source\PSoC4/UART_2_UART.c ****             else
 627:Generated_Source\PSoC4/UART_2_UART.c ****             {
 628:Generated_Source\PSoC4/UART_2_UART.c ****                 UART_2_UART_FLOW_CTRL_REG &= (uint32) ~UART_2_UART_FLOW_CTRL_RTS_POLARITY;
 629:Generated_Source\PSoC4/UART_2_UART.c ****             }
 630:Generated_Source\PSoC4/UART_2_UART.c ****         }
 631:Generated_Source\PSoC4/UART_2_UART.c **** 
 632:Generated_Source\PSoC4/UART_2_UART.c **** 
 633:Generated_Source\PSoC4/UART_2_UART.c ****         /*******************************************************************************
 634:Generated_Source\PSoC4/UART_2_UART.c ****         * Function Name: UART_2_UartSetRtsFifoLevel
 635:Generated_Source\PSoC4/UART_2_UART.c ****         ****************************************************************************//**
 636:Generated_Source\PSoC4/UART_2_UART.c ****         *
 637:Generated_Source\PSoC4/UART_2_UART.c ****         *  Sets level in the RX FIFO for RTS signal activation.
 638:Generated_Source\PSoC4/UART_2_UART.c ****         *  While the RX FIFO has fewer entries than the RX FIFO level the RTS signal
 639:Generated_Source\PSoC4/UART_2_UART.c ****         *  remains active, otherwise the RTS signal becomes inactive.
 640:Generated_Source\PSoC4/UART_2_UART.c ****         *  Only available for PSoC 4100 BLE / PSoC 4200 BLE / PSoC 4100M / PSoC 4200M /
 641:Generated_Source\PSoC4/UART_2_UART.c ****         *  PSoC 4200L / PSoC 4000S / PSoC 4100S / PSoC Analog Coprocessor devices.
 642:Generated_Source\PSoC4/UART_2_UART.c ****         *
 643:Generated_Source\PSoC4/UART_2_UART.c ****         *  \param level: Level in the RX FIFO for RTS signal activation.
 644:Generated_Source\PSoC4/UART_2_UART.c ****         *   The range of valid level values is between 0 and RX FIFO depth - 1.
 645:Generated_Source\PSoC4/UART_2_UART.c ****         *   Setting level value to 0 disables RTS signal activation.
 646:Generated_Source\PSoC4/UART_2_UART.c ****         *
ARM GAS  C:\Users\Feiyang\AppData\Local\Temp\cccTYYiw.s 			page 19


 647:Generated_Source\PSoC4/UART_2_UART.c ****         *******************************************************************************/
 648:Generated_Source\PSoC4/UART_2_UART.c ****         void UART_2_UartSetRtsFifoLevel(uint32 level)
 649:Generated_Source\PSoC4/UART_2_UART.c ****         {
 650:Generated_Source\PSoC4/UART_2_UART.c ****             uint32 uartFlowCtrl;
 651:Generated_Source\PSoC4/UART_2_UART.c **** 
 652:Generated_Source\PSoC4/UART_2_UART.c ****             uartFlowCtrl = UART_2_UART_FLOW_CTRL_REG;
 653:Generated_Source\PSoC4/UART_2_UART.c **** 
 654:Generated_Source\PSoC4/UART_2_UART.c ****             uartFlowCtrl &= ((uint32) ~UART_2_UART_FLOW_CTRL_TRIGGER_LEVEL_MASK); /* Clear level ma
 655:Generated_Source\PSoC4/UART_2_UART.c ****             uartFlowCtrl |= ((uint32) (UART_2_UART_FLOW_CTRL_TRIGGER_LEVEL_MASK & level));
 656:Generated_Source\PSoC4/UART_2_UART.c **** 
 657:Generated_Source\PSoC4/UART_2_UART.c ****             UART_2_UART_FLOW_CTRL_REG = uartFlowCtrl;
 658:Generated_Source\PSoC4/UART_2_UART.c ****         }
 659:Generated_Source\PSoC4/UART_2_UART.c ****     #endif /* !(UART_2_CY_SCBIP_V0 || UART_2_CY_SCBIP_V1) */
 660:Generated_Source\PSoC4/UART_2_UART.c **** 
 661:Generated_Source\PSoC4/UART_2_UART.c **** #endif /* (UART_2_UART_RX_DIRECTION) */
 662:Generated_Source\PSoC4/UART_2_UART.c **** 
 663:Generated_Source\PSoC4/UART_2_UART.c **** 
 664:Generated_Source\PSoC4/UART_2_UART.c **** #if(UART_2_UART_TX_DIRECTION)
 665:Generated_Source\PSoC4/UART_2_UART.c ****     /*******************************************************************************
 666:Generated_Source\PSoC4/UART_2_UART.c ****     * Function Name: UART_2_UartPutString
 667:Generated_Source\PSoC4/UART_2_UART.c ****     ****************************************************************************//**
 668:Generated_Source\PSoC4/UART_2_UART.c ****     *
 669:Generated_Source\PSoC4/UART_2_UART.c ****     *  Places a NULL terminated string in the transmit buffer to be sent at the
 670:Generated_Source\PSoC4/UART_2_UART.c ****     *  next available bus time.
 671:Generated_Source\PSoC4/UART_2_UART.c ****     *  This function is blocking and waits until there is a space available to put
 672:Generated_Source\PSoC4/UART_2_UART.c ****     *  requested data in transmit buffer.
 673:Generated_Source\PSoC4/UART_2_UART.c ****     *
 674:Generated_Source\PSoC4/UART_2_UART.c ****     *  \param string: pointer to the null terminated string array to be placed in the
 675:Generated_Source\PSoC4/UART_2_UART.c ****     *   transmit buffer.
 676:Generated_Source\PSoC4/UART_2_UART.c ****     *
 677:Generated_Source\PSoC4/UART_2_UART.c ****     *******************************************************************************/
 678:Generated_Source\PSoC4/UART_2_UART.c ****     void UART_2_UartPutString(const char8 string[])
 679:Generated_Source\PSoC4/UART_2_UART.c ****     {
 379              		.loc 1 679 0
 380              		.cfi_startproc
 381              	.LVL24:
 382 0000 38B5     		push	{r3, r4, r5, lr}
 383              		.cfi_def_cfa_offset 16
 384              		.cfi_offset 3, -16
 385              		.cfi_offset 4, -12
 386              		.cfi_offset 5, -8
 387              		.cfi_offset 14, -4
 388 0002 051C     		mov	r5, r0
 389              	.LVL25:
 680:Generated_Source\PSoC4/UART_2_UART.c ****         uint32 bufIndex;
 681:Generated_Source\PSoC4/UART_2_UART.c **** 
 682:Generated_Source\PSoC4/UART_2_UART.c ****         bufIndex = 0u;
 390              		.loc 1 682 0
 391 0004 0024     		mov	r4, #0
 683:Generated_Source\PSoC4/UART_2_UART.c **** 
 684:Generated_Source\PSoC4/UART_2_UART.c ****         /* Blocks the control flow until all data has been sent */
 685:Generated_Source\PSoC4/UART_2_UART.c ****         while(string[bufIndex] != ((char8) 0))
 392              		.loc 1 685 0
 393 0006 02E0     		b	.L28
 394              	.LVL26:
 395              	.L29:
 686:Generated_Source\PSoC4/UART_2_UART.c ****         {
ARM GAS  C:\Users\Feiyang\AppData\Local\Temp\cccTYYiw.s 			page 20


 687:Generated_Source\PSoC4/UART_2_UART.c ****             UART_2_UartPutChar((uint32) string[bufIndex]);
 396              		.loc 1 687 0
 397 0008 FFF7FEFF 		bl	UART_2_SpiUartWriteTxData
 398              	.LVL27:
 688:Generated_Source\PSoC4/UART_2_UART.c ****             bufIndex++;
 399              		.loc 1 688 0
 400 000c 0134     		add	r4, r4, #1
 401              	.LVL28:
 402              	.L28:
 685:Generated_Source\PSoC4/UART_2_UART.c ****         {
 403              		.loc 1 685 0
 404 000e 285D     		ldrb	r0, [r5, r4]
 405 0010 0028     		cmp	r0, #0
 406 0012 F9D1     		bne	.L29
 689:Generated_Source\PSoC4/UART_2_UART.c ****         }
 690:Generated_Source\PSoC4/UART_2_UART.c ****     }
 407              		.loc 1 690 0
 408              		@ sp needed
 409              	.LVL29:
 410              	.LVL30:
 411 0014 38BD     		pop	{r3, r4, r5, pc}
 412              		.cfi_endproc
 413              	.LFE7:
 414              		.size	UART_2_UartPutString, .-UART_2_UartPutString
 415 0016 C046     		.section	.text.UART_2_UartPutCRLF,"ax",%progbits
 416              		.align	2
 417              		.global	UART_2_UartPutCRLF
 418              		.code	16
 419              		.thumb_func
 420              		.type	UART_2_UartPutCRLF, %function
 421              	UART_2_UartPutCRLF:
 422              	.LFB8:
 691:Generated_Source\PSoC4/UART_2_UART.c **** 
 692:Generated_Source\PSoC4/UART_2_UART.c **** 
 693:Generated_Source\PSoC4/UART_2_UART.c ****     /*******************************************************************************
 694:Generated_Source\PSoC4/UART_2_UART.c ****     * Function Name: UART_2_UartPutCRLF
 695:Generated_Source\PSoC4/UART_2_UART.c ****     ****************************************************************************//**
 696:Generated_Source\PSoC4/UART_2_UART.c ****     *
 697:Generated_Source\PSoC4/UART_2_UART.c ****     *  Places byte of data followed by a carriage return (0x0D) and line feed
 698:Generated_Source\PSoC4/UART_2_UART.c ****     *  (0x0A) in the transmit buffer.
 699:Generated_Source\PSoC4/UART_2_UART.c ****     *  This function is blocking and waits until there is a space available to put
 700:Generated_Source\PSoC4/UART_2_UART.c ****     *  all requested data in transmit buffer.
 701:Generated_Source\PSoC4/UART_2_UART.c ****     *
 702:Generated_Source\PSoC4/UART_2_UART.c ****     *  \param txDataByte: the data to be transmitted.
 703:Generated_Source\PSoC4/UART_2_UART.c ****     *
 704:Generated_Source\PSoC4/UART_2_UART.c ****     *******************************************************************************/
 705:Generated_Source\PSoC4/UART_2_UART.c ****     void UART_2_UartPutCRLF(uint32 txDataByte)
 706:Generated_Source\PSoC4/UART_2_UART.c ****     {
 423              		.loc 1 706 0
 424              		.cfi_startproc
 425              	.LVL31:
 426 0000 08B5     		push	{r3, lr}
 427              		.cfi_def_cfa_offset 8
 428              		.cfi_offset 3, -8
 429              		.cfi_offset 14, -4
 707:Generated_Source\PSoC4/UART_2_UART.c ****         UART_2_UartPutChar(txDataByte);  /* Blocks control flow until all data has been sent */
 430              		.loc 1 707 0
ARM GAS  C:\Users\Feiyang\AppData\Local\Temp\cccTYYiw.s 			page 21


 431 0002 FFF7FEFF 		bl	UART_2_SpiUartWriteTxData
 432              	.LVL32:
 708:Generated_Source\PSoC4/UART_2_UART.c ****         UART_2_UartPutChar(0x0Du);       /* Blocks control flow until all data has been sent */
 433              		.loc 1 708 0
 434 0006 0D20     		mov	r0, #13
 435 0008 FFF7FEFF 		bl	UART_2_SpiUartWriteTxData
 436              	.LVL33:
 709:Generated_Source\PSoC4/UART_2_UART.c ****         UART_2_UartPutChar(0x0Au);       /* Blocks control flow until all data has been sent */
 437              		.loc 1 709 0
 438 000c 0A20     		mov	r0, #10
 439 000e FFF7FEFF 		bl	UART_2_SpiUartWriteTxData
 440              	.LVL34:
 710:Generated_Source\PSoC4/UART_2_UART.c ****     }
 441              		.loc 1 710 0
 442              		@ sp needed
 443 0012 08BD     		pop	{r3, pc}
 444              		.cfi_endproc
 445              	.LFE8:
 446              		.size	UART_2_UartPutCRLF, .-UART_2_UartPutCRLF
 447              		.text
 448              	.Letext0:
 449              		.file 2 "Generated_Source\\PSoC4/cytypes.h"
 450              		.file 3 "Generated_Source\\PSoC4\\UART_2_SPI_UART.h"
 451              		.file 4 "Generated_Source\\PSoC4\\UART_2_PVT.h"